(imatplotlib.font_manager
FontManager
p1
(dp2
S'afm_lookup_cache'
p3
(dp4
sS'ttflist'
p5
(lp6
ccopy_reg
_reconstructor
p7
(cmatplotlib.font_manager
FontEntry
p8
c__builtin__
object
p9
NtRp10
(dp11
S'style'
p12
S'normal'
p13
sS'name'
p14
S'cmb10'
p15
sS'weight'
p16
I400
sS'stretch'
p17
g13
sS'variant'
p18
g13
sS'fname'
p19
S'/usr/share/matplotlib/mpl-data/fonts/ttf/cmb10.ttf'
p20
sS'size'
p21
S'scalable'
p22
sbag7
(g8
g9
NtRp23
(dp24
g12
g13
sg14
S'cmex10'
p25
sg16
I400
sg17
g13
sg18
g13
sg19
S'/usr/share/matplotlib/mpl-data/fonts/ttf/cmex10.ttf'
p26
sg21
g22
sbag7
(g8
g9
NtRp27
(dp28
g12
S'italic'
p29
sg14
S'STIXNonUnicode'
p30
sg16
I400
sg17
g13
sg18
g13
sg19
S'/usr/share/matplotlib/mpl-data/fonts/ttf/STIXNonUniIta.ttf'
p31
sg21
g22
sbag7
(g8
g9
NtRp32
(dp33
g12
g13
sg14
S'STIXNonUnicode'
p34
sg16
I400
sg17
g13
sg18
g13
sg19
S'/usr/share/matplotlib/mpl-data/fonts/ttf/STIXNonUni.ttf'
p35
sg21
g22
sbag7
(g8
g9
NtRp36
(dp37
g12
g13
sg14
S'STIXSizeThreeSym'
p38
sg16
I400
sg17
g13
sg18
g13
sg19
S'/usr/share/matplotlib/mpl-data/fonts/ttf/STIXSizThreeSymReg.ttf'
p39
sg21
g22
sbag7
(g8
g9
NtRp40
(dp41
g12
g13
sg14
S'STIXSizeTwoSym'
p42
sg16
I700
sg17
g13
sg18
g13
sg19
S'/usr/share/matplotlib/mpl-data/fonts/ttf/STIXSizTwoSymBol.ttf'
p43
sg21
g22
sbag7
(g8
g9
NtRp44
(dp45
g12
g13
sg14
S'cmtt10'
p46
sg16
I400
sg17
g13
sg18
g13
sg19
S'/usr/share/matplotlib/mpl-data/fonts/ttf/cmtt10.ttf'
p47
sg21
g22
sbag7
(g8
g9
NtRp48
(dp49
g12
g13
sg14
S'STIXGeneral'
p50
sg16
I400
sg17
g13
sg18
g13
sg19
S'/usr/share/matplotlib/mpl-data/fonts/ttf/STIXGeneral.ttf'
p51
sg21
g22
sbag7
(g8
g9
NtRp52
(dp53
g12
g29
sg14
S'STIXNonUnicode'
p54
sg16
I700
sg17
g13
sg18
g13
sg19
S'/usr/share/matplotlib/mpl-data/fonts/ttf/STIXNonUniBolIta.ttf'
p55
sg21
g22
sbag7
(g8
g9
NtRp56
(dp57
g12
g13
sg14
S'STIXSizeFiveSym'
p58
sg16
I400
sg17
g13
sg18
g13
sg19
S'/usr/share/matplotlib/mpl-data/fonts/ttf/STIXSizFiveSymReg.ttf'
p59
sg21
g22
sbag7
(g8
g9
NtRp60
(dp61
g12
g13
sg14
S'STIXSizeOneSym'
p62
sg16
I700
sg17
g13
sg18
g13
sg19
S'/usr/share/matplotlib/mpl-data/fonts/ttf/STIXSizOneSymBol.ttf'
p63
sg21
g22
sbag7
(g8
g9
NtRp64
(dp65
g12
g13
sg14
S'STIXGeneral'
p66
sg16
I700
sg17
g13
sg18
g13
sg19
S'/usr/share/matplotlib/mpl-data/fonts/ttf/STIXGeneralBol.ttf'
p67
sg21
g22
sbag7
(g8
g9
NtRp68
(dp69
g12
g13
sg14
S'cmr10'
p70
sg16
I400
sg17
g13
sg18
g13
sg19
S'/usr/share/matplotlib/mpl-data/fonts/ttf/cmr10.ttf'
p71
sg21
g22
sbag7
(g8
g9
NtRp72
(dp73
g12
g13
sg14
S'STIXSizeTwoSym'
p74
sg16
I400
sg17
g13
sg18
g13
sg19
S'/usr/share/matplotlib/mpl-data/fonts/ttf/STIXSizTwoSymReg.ttf'
p75
sg21
g22
sbag7
(g8
g9
NtRp76
(dp77
g12
g13
sg14
S'STIXSizeOneSym'
p78
sg16
I400
sg17
g13
sg18
g13
sg19
S'/usr/share/matplotlib/mpl-data/fonts/ttf/STIXSizOneSymReg.ttf'
p79
sg21
g22
sbag7
(g8
g9
NtRp80
(dp81
g12
g13
sg14
S'cmsy10'
p82
sg16
I400
sg17
g13
sg18
g13
sg19
S'/usr/share/matplotlib/mpl-data/fonts/ttf/cmsy10.ttf'
p83
sg21
g22
sbag7
(g8
g9
NtRp84
(dp85
g12
g13
sg14
S'STIXSizeThreeSym'
p86
sg16
I700
sg17
g13
sg18
g13
sg19
S'/usr/share/matplotlib/mpl-data/fonts/ttf/STIXSizThreeSymBol.ttf'
p87
sg21
g22
sbag7
(g8
g9
NtRp88
(dp89
g12
g13
sg14
S'cmss10'
p90
sg16
I400
sg17
g13
sg18
g13
sg19
S'/usr/share/matplotlib/mpl-data/fonts/ttf/cmss10.ttf'
p91
sg21
g22
sbag7
(g8
g9
NtRp92
(dp93
g12
g13
sg14
S'STIXSizeFourSym'
p94
sg16
I700
sg17
g13
sg18
g13
sg19
S'/usr/share/matplotlib/mpl-data/fonts/ttf/STIXSizFourSymBol.ttf'
p95
sg21
g22
sbag7
(g8
g9
NtRp96
(dp97
g12
g29
sg14
S'STIXGeneral'
p98
sg16
I400
sg17
g13
sg18
g13
sg19
S'/usr/share/matplotlib/mpl-data/fonts/ttf/STIXGeneralItalic.ttf'
p99
sg21
g22
sbag7
(g8
g9
NtRp100
(dp101
g12
g13
sg14
S'cmmi10'
p102
sg16
I400
sg17
g13
sg18
g13
sg19
S'/usr/share/matplotlib/mpl-data/fonts/ttf/cmmi10.ttf'
p103
sg21
g22
sbag7
(g8
g9
NtRp104
(dp105
g12
g13
sg14
S'STIXNonUnicode'
p106
sg16
I700
sg17
g13
sg18
g13
sg19
S'/usr/share/matplotlib/mpl-data/fonts/ttf/STIXNonUniBol.ttf'
p107
sg21
g22
sbag7
(g8
g9
NtRp108
(dp109
g12
g29
sg14
S'STIXGeneral'
p110
sg16
I700
sg17
g13
sg18
g13
sg19
S'/usr/share/matplotlib/mpl-data/fonts/ttf/STIXGeneralBolIta.ttf'
p111
sg21
g22
sbag7
(g8
g9
NtRp112
(dp113
g12
g13
sg14
S'STIXSizeFourSym'
p114
sg16
I400
sg17
g13
sg18
g13
sg19
S'/usr/share/matplotlib/mpl-data/fonts/ttf/STIXSizFourSymReg.ttf'
p115
sg21
g22
sbag7
(g8
g9
NtRp116
(dp117
g12
g13
sg14
S'Webdings'
p118
sg16
I400
sg17
g13
sg18
g13
sg19
S'/usr/share/fonts/truetype/msttcorefonts/webdings.ttf'
p119
sg21
g22
sbag7
(g8
g9
NtRp120
(dp121
g12
g13
sg14
S'KacstTitle'
p122
sg16
I400
sg17
g13
sg18
g13
sg19
S'/usr/share/fonts/truetype/kacst/KacstTitle.ttf'
p123
sg21
g22
sbag7
(g8
g9
NtRp124
(dp125
g12
S'oblique'
p126
sg14
S'Tlwg Typo'
p127
sg16
I400
sg17
g13
sg18
g13
sg19
S'/usr/share/fonts/truetype/tlwg/TlwgTypo-Oblique.ttf'
p128
sg21
g22
sbag7
(g8
g9
NtRp129
(dp130
g12
g13
sg14
S'Mallige'
p131
sg16
I700
sg17
g13
sg18
g13
sg19
S'/usr/share/fonts/truetype/ttf-indic-fonts-core/Malige-b.ttf'
p132
sg21
g22
sbag7
(g8
g9
NtRp133
(dp134
g12
g13
sg14
S'Verdana'
p135
sg16
I700
sg17
g13
sg18
g13
sg19
S'/usr/share/fonts/truetype/msttcorefonts/verdanab.ttf'
p136
sg21
g22
sbag7
(g8
g9
NtRp137
(dp138
g12
g13
sg14
S'Umpush'
p139
sg16
I400
sg17
g13
sg18
g13
sg19
S'/usr/share/fonts/truetype/tlwg/Umpush.ttf'
p140
sg21
g22
sbag7
(g8
g9
NtRp141
(dp142
g12
g13
sg14
S'Ume Gothic O5'
p143
sg16
I400
sg17
g13
sg18
g13
sg19
S'/usr/share/fonts/truetype/horai-umefont/ume-tgo5.ttf'
p144
sg21
g22
sbag7
(g8
g9
NtRp145
(dp146
g12
g13
sg14
S'Garuda'
p147
sg16
I700
sg17
g13
sg18
g13
sg19
S'/usr/share/fonts/truetype/tlwg/Garuda-Bold.ttf'
p148
sg21
g22
sbag7
(g8
g9
NtRp149
(dp150
g12
g13
sg14
S'Times New Roman'
p151
sg16
I500
sg17
g13
sg18
g13
sg19
S'/usr/share/fonts/truetype/msttcorefonts/Times_New_Roman.ttf'
p152
sg21
g22
sbag7
(g8
g9
NtRp153
(dp154
g12
g13
sg14
S'Ume Mincho S3'
p155
sg16
I400
sg17
g13
sg18
g13
sg19
S'/usr/share/fonts/truetype/horai-umefont/ume-tms3.ttf'
p156
sg21
g22
sbag7
(g8
g9
NtRp157
(dp158
g12
g29
sg14
S'Verdana'
p159
sg16
I400
sg17
g13
sg18
g13
sg19
S'/usr/share/fonts/truetype/msttcorefonts/verdanai.ttf'
p160
sg21
g22
sbag7
(g8
g9
NtRp161
(dp162
g12
g13
sg14
S'FreeSerif'
p163
sg16
I400
sg17
g13
sg18
g13
sg19
S'/usr/share/fonts/truetype/freefont/FreeSerif.ttf'
p164
sg21
g22
sbag7
(g8
g9
NtRp165
(dp166
g12
g29
sg14
S'rsfs10'
p167
sg16
I400
sg17
g13
sg18
g13
sg19
S'/usr/share/fonts/truetype/ttf-lyx/rsfs10.ttf'
p168
sg21
g22
sbag7
(g8
g9
NtRp169
(dp170
g12
g13
sg14
S'DejaVu Sans'
p171
sg16
I400
sg17
S'condensed'
p172
sg18
g13
sg19
S'/usr/share/fonts/truetype/ttf-dejavu/DejaVuSansCondensed.ttf'
p173
sg21
g22
sbag7
(g8
g9
NtRp174
(dp175
g12
g126
sg14
S'Loma'
p176
sg16
I400
sg17
g13
sg18
g13
sg19
S'/usr/share/fonts/truetype/tlwg/Loma-Oblique.ttf'
p177
sg21
g22
sbag7
(g8
g9
NtRp178
(dp179
g12
g126
sg14
S'Norasi'
p180
sg16
I400
sg17
g13
sg18
g13
sg19
S'/usr/share/fonts/truetype/tlwg/Norasi-Oblique.ttf'
p181
sg21
g22
sbag7
(g8
g9
NtRp182
(dp183
g12
g126
sg14
S'Kinnari'
p184
sg16
I700
sg17
g13
sg18
g13
sg19
S'/usr/share/fonts/truetype/tlwg/Kinnari-BoldOblique.ttf'
p185
sg21
g22
sbag7
(g8
g9
NtRp186
(dp187
g12
g13
sg14
S'Arial'
p188
sg16
I700
sg17
g13
sg18
g13
sg19
S'/usr/share/fonts/truetype/msttcorefonts/Arial_Bold.ttf'
p189
sg21
g22
sbag7
(g8
g9
NtRp190
(dp191
g12
g13
sg14
S'KacstPoster'
p192
sg16
I400
sg17
g13
sg18
g13
sg19
S'/usr/share/fonts/truetype/kacst/KacstPoster.ttf'
p193
sg21
g22
sbag7
(g8
g9
NtRp194
(dp195
g12
g13
sg14
S'DejaVu Sans Mono'
p196
sg16
I400
sg17
g13
sg18
g13
sg19
S'/usr/share/fonts/truetype/ttf-dejavu/DejaVuSansMono.ttf'
p197
sg21
g22
sbag7
(g8
g9
NtRp198
(dp199
g12
g13
sg14
S'Lohit Punjabi'
p200
sg16
I400
sg17
g13
sg18
g13
sg19
S'/usr/share/fonts/truetype/ttf-punjabi-fonts/lohit_pa.ttf'
p201
sg21
g22
sbag7
(g8
g9
NtRp202
(dp203
g12
g13
sg14
S'Droid Serif'
p204
sg16
I700
sg17
g13
sg18
g13
sg19
S'/usr/share/fonts/truetype/droid/DroidSerif-Bold.ttf'
p205
sg21
g22
sbag7
(g8
g9
NtRp206
(dp207
g12
g13
sg14
S'Meera'
p208
sg16
I400
sg17
g13
sg18
g13
sg19
S'/usr/share/fonts/truetype/ttf-indic-fonts-core/Meera_04.ttf'
p209
sg21
g22
sbag7
(g8
g9
NtRp210
(dp211
g12
g13
sg14
S'TakaoPGothic'
p212
sg16
I400
sg17
g13
sg18
g13
sg19
S'/usr/share/fonts/truetype/fonts-japanese-gothic.ttf'
p213
sg21
g22
sbag7
(g8
g9
NtRp214
(dp215
g12
g29
sg14
S'Arial'
p216
sg16
I400
sg17
g13
sg18
g13
sg19
S'/usr/share/fonts/truetype/msttcorefonts/Arial_Italic.ttf'
p217
sg21
g22
sbag7
(g8
g9
NtRp218
(dp219
g12
g13
sg14
S'UnDotum'
p220
sg16
I400
sg17
g13
sg18
g13
sg19
S'/usr/share/fonts/truetype/unfonts-core/UnDotum.ttf'
p221
sg21
g22
sbag7
(g8
g9
NtRp222
(dp223
g12
g13
sg14
S'Georgia'
p224
sg16
I700
sg17
g13
sg18
g13
sg19
S'/usr/share/fonts/truetype/msttcorefonts/Georgia_Bold.ttf'
p225
sg21
g22
sbag7
(g8
g9
NtRp226
(dp227
g12
g126
sg14
S'Umpush'
p228
sg16
I200
sg17
g13
sg18
g13
sg19
S'/usr/share/fonts/truetype/tlwg/Umpush-LightOblique.ttf'
p229
sg21
g22
sbag7
(g8
g9
NtRp230
(dp231
g12
g13
sg14
S'FreeSerif'
p232
sg16
I700
sg17
g13
sg18
g13
sg19
S'/usr/share/fonts/truetype/freefont/FreeSerifBold.ttf'
p233
sg21
g22
sbag7
(g8
g9
NtRp234
(dp235
g12
g126
sg14
S'Waree'
p236
sg16
I400
sg17
g13
sg18
g13
sg19
S'/usr/share/fonts/truetype/tlwg/Waree-Oblique.ttf'
p237
sg21
g22
sbag7
(g8
g9
NtRp238
(dp239
g12
g13
sg14
S'Tlwg Typo'
p240
sg16
I400
sg17
g13
sg18
g13
sg19
S'/usr/share/fonts/truetype/tlwg/TlwgTypo.ttf'
p241
sg21
g22
sbag7
(g8
g9
NtRp242
(dp243
g12
g13
sg14
S'DejaVu Serif'
p244
sg16
I700
sg17
g13
sg18
g13
sg19
S'/usr/share/fonts/truetype/ttf-dejavu/DejaVuSerif-Bold.ttf'
p245
sg21
g22
sbag7
(g8
g9
NtRp246
(dp247
g12
g13
sg14
S'Georgia'
p248
sg16
I700
sg17
g13
sg18
g13
sg19
S'/usr/share/fonts/truetype/msttcorefonts/georgiab.ttf'
p249
sg21
g22
sbag7
(g8
g9
NtRp250
(dp251
g12
g13
sg14
S'DejaVu Serif'
p252
sg16
I400
sg17
g13
sg18
g13
sg19
S'/usr/share/fonts/truetype/ttf-dejavu/DejaVuSerif.ttf'
p253
sg21
g22
sbag7
(g8
g9
NtRp254
(dp255
g12
g13
sg14
S'Liberation Sans Narrow'
p256
sg16
I700
sg17
g172
sg18
g13
sg19
S'/usr/share/fonts/truetype/liberation/LiberationSansNarrow-Bold.ttf'
p257
sg21
g22
sbag7
(g8
g9
NtRp258
(dp259
g12
g126
sg14
S'FreeSans'
p260
sg16
I400
sg17
g13
sg18
g13
sg19
S'/usr/share/fonts/truetype/freefont/FreeSansOblique.ttf'
p261
sg21
g22
sbag7
(g8
g9
NtRp262
(dp263
g12
g13
sg14
S'Comic Sans MS'
p264
sg16
I700
sg17
g13
sg18
g13
sg19
S'/usr/share/fonts/truetype/msttcorefonts/Comic_Sans_MS_Bold.ttf'
p265
sg21
g22
sbag7
(g8
g9
NtRp266
(dp267
g12
g13
sg14
S'Liberation Mono'
p268
sg16
I400
sg17
g13
sg18
g13
sg19
S'/usr/share/fonts/truetype/liberation/LiberationMono-Regular.ttf'
p269
sg21
g22
sbag7
(g8
g9
NtRp270
(dp271
g12
g13
sg14
S'Liberation Sans'
p272
sg16
I700
sg17
g13
sg18
g13
sg19
S'/usr/share/fonts/truetype/liberation/LiberationSans-Bold.ttf'
p273
sg21
g22
sbag7
(g8
g9
NtRp274
(dp275
g12
g13
sg14
S'KacstTitleL'
p276
sg16
I400
sg17
g13
sg18
g13
sg19
S'/usr/share/fonts/truetype/kacst/KacstTitleL.ttf'
p277
sg21
g22
sbag7
(g8
g9
NtRp278
(dp279
g12
g13
sg14
S'Lohit Hindi'
p280
sg16
I400
sg17
g13
sg18
g13
sg19
S'/usr/share/fonts/truetype/ttf-indic-fonts-core/lohit_hi.ttf'
p281
sg21
g22
sbag7
(g8
g9
NtRp282
(dp283
g12
g13
sg14
S'Courier New'
p284
sg16
I700
sg17
g13
sg18
g13
sg19
S'/usr/share/fonts/truetype/msttcorefonts/Courier_New_Bold.ttf'
p285
sg21
g22
sbag7
(g8
g9
NtRp286
(dp287
g12
g29
sg14
S'Georgia'
p288
sg16
I700
sg17
g13
sg18
g13
sg19
S'/usr/share/fonts/truetype/msttcorefonts/Georgia_Bold_Italic.ttf'
p289
sg21
g22
sbag7
(g8
g9
NtRp290
(dp291
g12
g126
sg14
S'DejaVu Sans'
p292
sg16
I400
sg17
g13
sg18
g13
sg19
S'/usr/share/fonts/truetype/ttf-dejavu/DejaVuSans-Oblique.ttf'
p293
sg21
g22
sbag7
(g8
g9
NtRp294
(dp295
g12
g13
sg14
S'Ume P Mincho S3'
p296
sg16
I400
sg17
g13
sg18
g13
sg19
S'/usr/share/fonts/truetype/horai-umefont/ume-pms3.ttf'
p297
sg21
g22
sbag7
(g8
g9
NtRp298
(dp299
g12
g13
sg14
S'Ume P Gothic S4'
p300
sg16
I400
sg17
g13
sg18
g13
sg19
S'/usr/share/fonts/truetype/horai-umefont/ume-pgs4.ttf'
p301
sg21
g22
sbag7
(g8
g9
NtRp302
(dp303
g12
g13
sg14
S'Ubuntu'
p304
sg16
I400
sg17
g13
sg18
g13
sg19
S'/usr/share/fonts/truetype/ubuntu-font-family/Ubuntu-R.ttf'
p305
sg21
g22
sbag7
(g8
g9
NtRp306
(dp307
g12
g29
sg14
S'Times New Roman'
p308
sg16
I700
sg17
g13
sg18
g13
sg19
S'/usr/share/fonts/truetype/msttcorefonts/Times_New_Roman_Bold_Italic.ttf'
p309
sg21
g22
sbag7
(g8
g9
NtRp310
(dp311
g12
g13
sg14
S'eufm10'
p312
sg16
I400
sg17
g13
sg18
g13
sg19
S'/usr/share/fonts/truetype/ttf-lyx/eufm10.ttf'
p313
sg21
g22
sbag7
(g8
g9
NtRp314
(dp315
g12
g13
sg14
S'Ume Mincho'
p316
sg16
I400
sg17
g13
sg18
g13
sg19
S'/usr/share/fonts/truetype/horai-umefont/ume-tmo3.ttf'
p317
sg21
g22
sbag7
(g8
g9
NtRp318
(dp319
g12
g126
sg14
S'DejaVu Sans'
p320
sg16
I700
sg17
g13
sg18
g13
sg19
S'/usr/share/fonts/truetype/ttf-dejavu/DejaVuSans-BoldOblique.ttf'
p321
sg21
g22
sbag7
(g8
g9
NtRp322
(dp323
g12
g13
sg14
S'Tlwg Typist'
p324
sg16
I400
sg17
g13
sg18
g13
sg19
S'/usr/share/fonts/truetype/tlwg/TlwgTypist.ttf'
p325
sg21
g22
sbag7
(g8
g9
NtRp326
(dp327
g12
g13
sg14
S'NanumGothic'
p328
sg16
I400
sg17
g13
sg18
g13
sg19
S'/usr/share/fonts/truetype/nanum/NanumGothic.ttf'
p329
sg21
g22
sbag7
(g8
g9
NtRp330
(dp331
g12
g13
sg14
S'wasy10'
p332
sg16
I400
sg17
g13
sg18
g13
sg19
S'/usr/share/fonts/truetype/ttf-lyx/wasy10.ttf'
p333
sg21
g22
sbag7
(g8
g9
NtRp334
(dp335
g12
g13
sg14
S'Ume P Gothic'
p336
sg16
I400
sg17
g13
sg18
g13
sg19
S'/usr/share/fonts/truetype/horai-umefont/ume-pgo4.ttf'
p337
sg21
g22
sbag7
(g8
g9
NtRp338
(dp339
g12
g13
sg14
S'Impact'
p340
sg16
I400
sg17
g13
sg18
g13
sg19
S'/usr/share/fonts/truetype/msttcorefonts/Impact.ttf'
p341
sg21
g22
sbag7
(g8
g9
NtRp342
(dp343
g12
g126
sg14
S'DejaVu Sans'
p344
sg16
I700
sg17
g172
sg18
g13
sg19
S'/usr/share/fonts/truetype/ttf-dejavu/DejaVuSansCondensed-BoldOblique.ttf'
p345
sg21
g22
sbag7
(g8
g9
NtRp346
(dp347
g12
g13
sg14
S'Georgia'
p348
sg16
I400
sg17
g13
sg18
g13
sg19
S'/usr/share/fonts/truetype/msttcorefonts/Georgia.ttf'
p349
sg21
g22
sbag7
(g8
g9
NtRp350
(dp351
g12
g126
sg14
S'TlwgMono'
p352
sg16
I400
sg17
g13
sg18
g13
sg19
S'/usr/share/fonts/truetype/tlwg/TlwgMono-Oblique.ttf'
p353
sg21
g22
sbag7
(g8
g9
NtRp354
(dp355
g12
g13
sg14
S'msbm10'
p356
sg16
I400
sg17
g13
sg18
g13
sg19
S'/usr/share/fonts/truetype/ttf-lyx/msbm10.ttf'
p357
sg21
g22
sbag7
(g8
g9
NtRp358
(dp359
g12
g13
sg14
S'TlwgMono'
p360
sg16
I700
sg17
g13
sg18
g13
sg19
S'/usr/share/fonts/truetype/tlwg/TlwgMono-Bold.ttf'
p361
sg21
g22
sbag7
(g8
g9
NtRp362
(dp363
g12
g29
sg14
S'Liberation Mono'
p364
sg16
I400
sg17
g13
sg18
g13
sg19
S'/usr/share/fonts/truetype/liberation/LiberationMono-Italic.ttf'
p365
sg21
g22
sbag7
(g8
g9
NtRp366
(dp367
g12
g29
sg14
S'Liberation Serif'
p368
sg16
I700
sg17
g13
sg18
g13
sg19
S'/usr/share/fonts/truetype/liberation/LiberationSerif-BoldItalic.ttf'
p369
sg21
g22
sbag7
(g8
g9
NtRp370
(dp371
g12
g13
sg14
S'Andale Mono'
p372
sg16
I400
sg17
g13
sg18
g13
sg19
S'/usr/share/fonts/truetype/msttcorefonts/andalemo.ttf'
p373
sg21
g22
sbag7
(g8
g9
NtRp374
(dp375
g12
g13
sg14
S'DejaVu Sans'
p376
sg16
I400
sg17
g13
sg18
g13
sg19
S'/usr/share/fonts/truetype/ttf-dejavu/DejaVuSans.ttf'
p377
sg21
g22
sbag7
(g8
g9
NtRp378
(dp379
g12
g29
sg14
S'Arial'
p380
sg16
I700
sg17
g13
sg18
g13
sg19
S'/usr/share/fonts/truetype/msttcorefonts/arialbi.ttf'
p381
sg21
g22
sbag7
(g8
g9
NtRp382
(dp383
g12
g13
sg14
S'Liberation Serif'
p384
sg16
I700
sg17
g13
sg18
g13
sg19
S'/usr/share/fonts/truetype/liberation/LiberationSerif-Bold.ttf'
p385
sg21
g22
sbag7
(g8
g9
NtRp386
(dp387
g12
g29
sg14
S'Liberation Sans'
p388
sg16
I400
sg17
g13
sg18
g13
sg19
S'/usr/share/fonts/truetype/liberation/LiberationSans-Italic.ttf'
p389
sg21
g22
sbag7
(g8
g9
NtRp390
(dp391
g12
g13
sg14
S'Verdana'
p392
sg16
I400
sg17
g13
sg18
g13
sg19
S'/usr/share/fonts/truetype/msttcorefonts/Verdana.ttf'
p393
sg21
g22
sbag7
(g8
g9
NtRp394
(dp395
g12
g13
sg14
S'NanumMyeongjo'
p396
sg16
I700
sg17
g13
sg18
g13
sg19
S'/usr/share/fonts/truetype/nanum/NanumMyeongjoBold.ttf'
p397
sg21
g22
sbag7
(g8
g9
NtRp398
(dp399
g12
g13
sg14
S'Waree'
p400
sg16
I700
sg17
g13
sg18
g13
sg19
S'/usr/share/fonts/truetype/tlwg/Waree-Bold.ttf'
p401
sg21
g22
sbag7
(g8
g9
NtRp402
(dp403
g12
g13
sg14
S'UnGraphic'
p404
sg16
I400
sg17
g13
sg18
g13
sg19
S'/usr/share/fonts/truetype/unfonts-core/UnGraphic.ttf'
p405
sg21
g22
sbag7
(g8
g9
NtRp406
(dp407
g12
g13
sg14
S'Pothana2000'
p408
sg16
I400
sg17
g13
sg18
g13
sg19
S'/usr/share/fonts/truetype/ttf-indic-fonts-core/Pothana2000.ttf'
p409
sg21
g22
sbag7
(g8
g9
NtRp410
(dp411
g12
g13
sg14
S'Ume P Gothic C5'
p412
sg16
I400
sg17
g13
sg18
g13
sg19
S'/usr/share/fonts/truetype/horai-umefont/ume-pgc5.ttf'
p413
sg21
g22
sbag7
(g8
g9
NtRp414
(dp415
g12
g13
sg14
S'Phetsarath OT'
p416
sg16
I400
sg17
g13
sg18
g13
sg19
S'/usr/share/fonts/truetype/lao/Phetsarath_OT.ttf'
p417
sg21
g22
sbag7
(g8
g9
NtRp418
(dp419
g12
g126
sg14
S'DejaVu Sans'
p420
sg16
I400
sg17
g172
sg18
g13
sg19
S'/usr/share/fonts/truetype/ttf-dejavu/DejaVuSansCondensed-Oblique.ttf'
p421
sg21
g22
sbag7
(g8
g9
NtRp422
(dp423
g12
g13
sg14
S'Courier New'
p424
sg16
I400
sg17
g13
sg18
g13
sg19
S'/usr/share/fonts/truetype/msttcorefonts/cour.ttf'
p425
sg21
g22
sbag7
(g8
g9
NtRp426
(dp427
g12
g13
sg14
S'ori1Uni'
p428
sg16
I500
sg17
g13
sg18
g13
sg19
S'/usr/share/fonts/truetype/ttf-indic-fonts-core/utkal.ttf'
p429
sg21
g22
sbag7
(g8
g9
NtRp430
(dp431
g12
g13
sg14
S'KacstQurn'
p432
sg16
I400
sg17
g13
sg18
g13
sg19
S'/usr/share/fonts/truetype/kacst/KacstQurn.ttf'
p433
sg21
g22
sbag7
(g8
g9
NtRp434
(dp435
g12
g13
sg14
S'KacstDigital'
p436
sg16
I400
sg17
g13
sg18
g13
sg19
S'/usr/share/fonts/truetype/kacst/KacstDigital.ttf'
p437
sg21
g22
sbag7
(g8
g9
NtRp438
(dp439
g12
g13
sg14
S'TakaoPGothic'
p440
sg16
I400
sg17
g13
sg18
g13
sg19
S'/usr/share/fonts/truetype/takao-gothic/TakaoPGothic.ttf'
p441
sg21
g22
sbag7
(g8
g9
NtRp442
(dp443
g12
g13
sg14
S'Droid Sans'
p444
sg16
I400
sg17
g13
sg18
g13
sg19
S'/usr/share/fonts/truetype/droid/DroidSans.ttf'
p445
sg21
g22
sbag7
(g8
g9
NtRp446
(dp447
g12
g29
sg14
S'DejaVu Serif'
p448
sg16
I700
sg17
g13
sg18
g13
sg19
S'/usr/share/fonts/truetype/ttf-dejavu/DejaVuSerif-BoldItalic.ttf'
p449
sg21
g22
sbag7
(g8
g9
NtRp450
(dp451
g12
g13
sg14
S'KacstScreen'
p452
sg16
I400
sg17
g13
sg18
g13
sg19
S'/usr/share/fonts/truetype/kacst/KacstScreen.ttf'
p453
sg21
g22
sbag7
(g8
g9
NtRp454
(dp455
g12
g13
sg14
S'Trebuchet MS'
p456
sg16
I400
sg17
g13
sg18
g13
sg19
S'/usr/share/fonts/truetype/msttcorefonts/Trebuchet_MS.ttf'
p457
sg21
g22
sbag7
(g8
g9
NtRp458
(dp459
g12
g13
sg14
S'UnDotum'
p460
sg16
I700
sg17
g13
sg18
g13
sg19
S'/usr/share/fonts/truetype/unfonts-core/UnDotumBold.ttf'
p461
sg21
g22
sbag7
(g8
g9
NtRp462
(dp463
g12
g13
sg14
S'Ume UI Gothic O5'
p464
sg16
I400
sg17
g13
sg18
g13
sg19
S'/usr/share/fonts/truetype/horai-umefont/ume-ugo5.ttf'
p465
sg21
g22
sbag7
(g8
g9
NtRp466
(dp467
g12
g13
sg14
S'Kedage'
p468
sg16
I700
sg17
g13
sg18
g13
sg19
S'/usr/share/fonts/truetype/ttf-indic-fonts-core/Kedage-b.ttf'
p469
sg21
g22
sbag7
(g8
g9
NtRp470
(dp471
g12
g13
sg14
S'DejaVu Serif'
p472
sg16
I700
sg17
g172
sg18
g13
sg19
S'/usr/share/fonts/truetype/ttf-dejavu/DejaVuSerifCondensed-Bold.ttf'
p473
sg21
g22
sbag7
(g8
g9
NtRp474
(dp475
g12
g13
sg14
S'Ubuntu Mono'
p476
sg16
I400
sg17
g13
sg18
g13
sg19
S'/usr/share/fonts/truetype/ubuntu-font-family/UbuntuMono-R.ttf'
p477
sg21
g22
sbag7
(g8
g9
NtRp478
(dp479
g12
g13
sg14
S'Droid Sans Hebrew'
p480
sg16
I400
sg17
g13
sg18
g13
sg19
S'/usr/share/fonts/truetype/droid/DroidSansHebrew.ttf'
p481
sg21
g22
sbag7
(g8
g9
NtRp482
(dp483
g12
g29
sg14
S'Trebuchet MS'
p484
sg16
I400
sg17
g13
sg18
g13
sg19
S'/usr/share/fonts/truetype/msttcorefonts/Trebuchet_MS_Italic.ttf'
p485
sg21
g22
sbag7
(g8
g9
NtRp486
(dp487
g12
g13
sg14
S'Courier New'
p488
sg16
I400
sg17
g13
sg18
g13
sg19
S'/usr/share/fonts/truetype/msttcorefonts/Courier_New.ttf'
p489
sg21
g22
sbag7
(g8
g9
NtRp490
(dp491
g12
g13
sg14
S'Comic Sans MS'
p492
sg16
I700
sg17
g13
sg18
g13
sg19
S'/usr/share/fonts/truetype/msttcorefonts/comicbd.ttf'
p493
sg21
g22
sbag7
(g8
g9
NtRp494
(dp495
g12
g13
sg14
S'Norasi'
p496
sg16
I700
sg17
g13
sg18
g13
sg19
S'/usr/share/fonts/truetype/tlwg/Norasi-Bold.ttf'
p497
sg21
g22
sbag7
(g8
g9
NtRp498
(dp499
g12
g13
sg14
S'Droid Serif'
p500
sg16
I400
sg17
g13
sg18
g13
sg19
S'/usr/share/fonts/truetype/droid/DroidSerif-Regular.ttf'
p501
sg21
g22
sbag7
(g8
g9
NtRp502
(dp503
g12
g13
sg14
S'Arial'
p504
sg16
I400
sg17
g13
sg18
g13
sg19
S'/usr/share/fonts/truetype/msttcorefonts/Arial.ttf'
p505
sg21
g22
sbag7
(g8
g9
NtRp506
(dp507
g12
g13
sg14
S'Umpush'
p508
sg16
I700
sg17
g13
sg18
g13
sg19
S'/usr/share/fonts/truetype/tlwg/Umpush-Bold.ttf'
p509
sg21
g22
sbag7
(g8
g9
NtRp510
(dp511
g12
g29
sg14
S'Courier New'
p512
sg16
I700
sg17
g13
sg18
g13
sg19
S'/usr/share/fonts/truetype/msttcorefonts/courbi.ttf'
p513
sg21
g22
sbag7
(g8
g9
NtRp514
(dp515
g12
g13
sg14
S'Times New Roman'
p516
sg16
I500
sg17
g13
sg18
g13
sg19
S'/usr/share/fonts/truetype/msttcorefonts/times.ttf'
p517
sg21
g22
sbag7
(g8
g9
NtRp518
(dp519
g12
g13
sg14
S'DejaVu Sans'
p520
sg16
I700
sg17
g172
sg18
g13
sg19
S'/usr/share/fonts/truetype/ttf-dejavu/DejaVuSansCondensed-Bold.ttf'
p521
sg21
g22
sbag7
(g8
g9
NtRp522
(dp523
g12
g29
sg14
S'Verdana'
p524
sg16
I400
sg17
g13
sg18
g13
sg19
S'/usr/share/fonts/truetype/msttcorefonts/Verdana_Italic.ttf'
p525
sg21
g22
sbag7
(g8
g9
NtRp526
(dp527
g12
g13
sg14
S'UnGraphic'
p528
sg16
I700
sg17
g13
sg18
g13
sg19
S'/usr/share/fonts/truetype/unfonts-core/UnGraphicBold.ttf'
p529
sg21
g22
sbag7
(g8
g9
NtRp530
(dp531
g12
g13
sg14
S'FreeMono'
p532
sg16
I400
sg17
g13
sg18
g13
sg19
S'/usr/share/fonts/truetype/freefont/FreeMono.ttf'
p533
sg21
g22
sbag7
(g8
g9
NtRp534
(dp535
g12
g13
sg14
S'Mallige'
p536
sg16
I400
sg17
g13
sg18
g13
sg19
S'/usr/share/fonts/truetype/ttf-indic-fonts-core/Malige-n.ttf'
p537
sg21
g22
sbag7
(g8
g9
NtRp538
(dp539
g12
g13
sg14
S'KacstNaskh'
p540
sg16
I400
sg17
g13
sg18
g13
sg19
S'/usr/share/fonts/truetype/kacst/KacstNaskh.ttf'
p541
sg21
g22
sbag7
(g8
g9
NtRp542
(dp543
g12
g13
sg14
S'Rekha'
p544
sg16
I400
sg17
g13
sg18
g13
sg19
S'/usr/share/fonts/truetype/ttf-indic-fonts-core/Rekha.ttf'
p545
sg21
g22
sbag7
(g8
g9
NtRp546
(dp547
g12
g29
sg14
S'Liberation Sans Narrow'
p548
sg16
I700
sg17
g172
sg18
g13
sg19
S'/usr/share/fonts/truetype/liberation/LiberationSansNarrow-BoldItalic.ttf'
p549
sg21
g22
sbag7
(g8
g9
NtRp550
(dp551
g12
g126
sg14
S'Norasi'
p552
sg16
I700
sg17
g13
sg18
g13
sg19
S'/usr/share/fonts/truetype/tlwg/Norasi-BoldOblique.ttf'
p553
sg21
g22
sbag7
(g8
g9
NtRp554
(dp555
g12
g13
sg14
S'Trebuchet MS'
p556
sg16
I400
sg17
g13
sg18
g13
sg19
S'/usr/share/fonts/truetype/msttcorefonts/trebuc.ttf'
p557
sg21
g22
sbag7
(g8
g9
NtRp558
(dp559
g12
g29
sg14
S'DejaVu Serif'
p560
sg16
I700
sg17
g172
sg18
g13
sg19
S'/usr/share/fonts/truetype/ttf-dejavu/DejaVuSerifCondensed-BoldItalic.ttf'
p561
sg21
g22
sbag7
(g8
g9
NtRp562
(dp563
g12
g13
sg14
S'Sawasdee'
p564
sg16
I400
sg17
g13
sg18
g13
sg19
S'/usr/share/fonts/truetype/tlwg/Sawasdee.ttf'
p565
sg21
g22
sbag7
(g8
g9
NtRp566
(dp567
g12
g13
sg14
S'KacstOne'
p568
sg16
I400
sg17
g13
sg18
g13
sg19
S'/usr/share/fonts/truetype/kacst-one/KacstOne.ttf'
p569
sg21
g22
sbag7
(g8
g9
NtRp570
(dp571
g12
g13
sg14
S'Lohit Gujarati'
p572
sg16
I400
sg17
g13
sg18
g13
sg19
S'/usr/share/fonts/truetype/ttf-indic-fonts-core/lohit_gu.ttf'
p573
sg21
g22
sbag7
(g8
g9
NtRp574
(dp575
g12
g13
sg14
S'UnDinaru'
p576
sg16
I700
sg17
g13
sg18
g13
sg19
S'/usr/share/fonts/truetype/unfonts-core/UnDinaruBold.ttf'
p577
sg21
g22
sbag7
(g8
g9
NtRp578
(dp579
g12
g13
sg14
S'FreeSans'
p580
sg16
I700
sg17
g13
sg18
g13
sg19
S'/usr/share/fonts/truetype/freefont/FreeSansBold.ttf'
p581
sg21
g22
sbag7
(g8
g9
NtRp582
(dp583
g12
g13
sg14
S'Liberation Mono'
p584
sg16
I700
sg17
g13
sg18
g13
sg19
S'/usr/share/fonts/truetype/liberation/LiberationMono-Bold.ttf'
p585
sg21
g22
sbag7
(g8
g9
NtRp586
(dp587
g12
g126
sg14
S'Tlwg Typist'
p588
sg16
I700
sg17
g13
sg18
g13
sg19
S'/usr/share/fonts/truetype/tlwg/TlwgTypist-BoldOblique.ttf'
p589
sg21
g22
sbag7
(g8
g9
NtRp590
(dp591
g12
g13
sg14
S'Lohit Bengali'
p592
sg16
I400
sg17
g13
sg18
g13
sg19
S'/usr/share/fonts/truetype/ttf-indic-fonts-core/lohit_bn.ttf'
p593
sg21
g22
sbag7
(g8
g9
NtRp594
(dp595
g12
g13
sg14
S'Garuda'
p596
sg16
I400
sg17
g13
sg18
g13
sg19
S'/usr/share/fonts/truetype/tlwg/Garuda.ttf'
p597
sg21
g22
sbag7
(g8
g9
NtRp598
(dp599
g12
g29
sg14
S'Ubuntu Mono'
p600
sg16
I400
sg17
g13
sg18
g13
sg19
S'/usr/share/fonts/truetype/ubuntu-font-family/UbuntuMono-RI.ttf'
p601
sg21
g22
sbag7
(g8
g9
NtRp602
(dp603
g12
g13
sg14
S'Liberation Serif'
p604
sg16
I400
sg17
g13
sg18
g13
sg19
S'/usr/share/fonts/truetype/liberation/LiberationSerif-Regular.ttf'
p605
sg21
g22
sbag7
(g8
g9
NtRp606
(dp607
g12
g126
sg14
S'DejaVu Sans Mono'
p608
sg16
I700
sg17
g13
sg18
g13
sg19
S'/usr/share/fonts/truetype/ttf-dejavu/DejaVuSansMono-BoldOblique.ttf'
p609
sg21
g22
sbag7
(g8
g9
NtRp610
(dp611
g12
g13
sg14
S'Purisa'
p612
sg16
I700
sg17
g13
sg18
g13
sg19
S'/usr/share/fonts/truetype/tlwg/Purisa-Bold.ttf'
p613
sg21
g22
sbag7
(g8
g9
NtRp614
(dp615
g12
g13
sg14
S'FreeMono'
p616
sg16
I700
sg17
g13
sg18
g13
sg19
S'/usr/share/fonts/truetype/freefont/FreeMonoBold.ttf'
p617
sg21
g22
sbag7
(g8
g9
NtRp618
(dp619
g12
g13
sg14
S'DejaVu Sans'
p620
sg16
I700
sg17
g13
sg18
g13
sg19
S'/usr/share/fonts/truetype/ttf-dejavu/DejaVuSans-Bold.ttf'
p621
sg21
g22
sbag7
(g8
g9
NtRp622
(dp623
g12
g13
sg14
S'Tlwg Typist'
p624
sg16
I700
sg17
g13
sg18
g13
sg19
S'/usr/share/fonts/truetype/tlwg/TlwgTypist-Bold.ttf'
p625
sg21
g22
sbag7
(g8
g9
NtRp626
(dp627
g12
g13
sg14
S'DejaVu Sans'
p628
sg16
I200
sg17
g13
sg18
g13
sg19
S'/usr/share/fonts/truetype/ttf-dejavu/DejaVuSans-ExtraLight.ttf'
p629
sg21
g22
sbag7
(g8
g9
NtRp630
(dp631
g12
g13
sg14
S'Georgia'
p632
sg16
I400
sg17
g13
sg18
g13
sg19
S'/usr/share/fonts/truetype/msttcorefonts/georgia.ttf'
p633
sg21
g22
sbag7
(g8
g9
NtRp634
(dp635
g12
g13
sg14
S'KacstBook'
p636
sg16
I400
sg17
g13
sg18
g13
sg19
S'/usr/share/fonts/truetype/kacst/KacstBook.ttf'
p637
sg21
g22
sbag7
(g8
g9
NtRp638
(dp639
g12
g13
sg14
S'KacstFarsi'
p640
sg16
I400
sg17
g13
sg18
g13
sg19
S'/usr/share/fonts/truetype/kacst/KacstFarsi.ttf'
p641
sg21
g22
sbag7
(g8
g9
NtRp642
(dp643
g12
g29
sg14
S'Verdana'
p644
sg16
I700
sg17
g13
sg18
g13
sg19
S'/usr/share/fonts/truetype/msttcorefonts/verdanaz.ttf'
p645
sg21
g22
sbag7
(g8
g9
NtRp646
(dp647
g12
g13
sg14
S'Purisa'
p648
sg16
I400
sg17
g13
sg18
g13
sg19
S'/usr/share/fonts/truetype/tlwg/Purisa.ttf'
p649
sg21
g22
sbag7
(g8
g9
NtRp650
(dp651
g12
g13
sg14
S'Droid Sans Fallback'
p652
sg16
I400
sg17
g13
sg18
g13
sg19
S'/usr/share/fonts/truetype/droid/DroidSansFallback.ttf'
p653
sg21
g22
sbag7
(g8
g9
NtRp654
(dp655
g12
g29
sg14
S'Georgia'
p656
sg16
I400
sg17
g13
sg18
g13
sg19
S'/usr/share/fonts/truetype/msttcorefonts/georgiai.ttf'
p657
sg21
g22
sbag7
(g8
g9
NtRp658
(dp659
g12
g13
sg14
S'Andale Mono'
p660
sg16
I400
sg17
g13
sg18
g13
sg19
S'/usr/share/fonts/truetype/msttcorefonts/Andale_Mono.ttf'
p661
sg21
g22
sbag7
(g8
g9
NtRp662
(dp663
g12
g29
sg14
S'Liberation Sans'
p664
sg16
I700
sg17
g13
sg18
g13
sg19
S'/usr/share/fonts/truetype/liberation/LiberationSans-BoldItalic.ttf'
p665
sg21
g22
sbag7
(g8
g9
NtRp666
(dp667
g12
g29
sg14
S'Georgia'
p668
sg16
I400
sg17
g13
sg18
g13
sg19
S'/usr/share/fonts/truetype/msttcorefonts/Georgia_Italic.ttf'
p669
sg21
g22
sbag7
(g8
g9
NtRp670
(dp671
g12
g29
sg14
S'Ubuntu'
p672
sg16
I200
sg17
g13
sg18
g13
sg19
S'/usr/share/fonts/truetype/ubuntu-font-family/Ubuntu-LI.ttf'
p673
sg21
g22
sbag7
(g8
g9
NtRp674
(dp675
g12
g13
sg14
S'Droid Sans Mono'
p676
sg16
I400
sg17
g13
sg18
g13
sg19
S'/usr/share/fonts/truetype/droid/DroidSansMono.ttf'
p677
sg21
g22
sbag7
(g8
g9
NtRp678
(dp679
g12
g29
sg14
S'Courier New'
p680
sg16
I400
sg17
g13
sg18
g13
sg19
S'/usr/share/fonts/truetype/msttcorefonts/Courier_New_Italic.ttf'
p681
sg21
g22
sbag7
(g8
g9
NtRp682
(dp683
g12
g126
sg14
S'Umpush'
p684
sg16
I400
sg17
g13
sg18
g13
sg19
S'/usr/share/fonts/truetype/tlwg/Umpush-Oblique.ttf'
p685
sg21
g22
sbag7
(g8
g9
NtRp686
(dp687
g12
g13
sg14
S'NanumGothic'
p688
sg16
I700
sg17
g13
sg18
g13
sg19
S'/usr/share/fonts/truetype/nanum/NanumGothicBold.ttf'
p689
sg21
g22
sbag7
(g8
g9
NtRp690
(dp691
g12
g29
sg14
S'Liberation Mono'
p692
sg16
I700
sg17
g13
sg18
g13
sg19
S'/usr/share/fonts/truetype/liberation/LiberationMono-BoldItalic.ttf'
p693
sg21
g22
sbag7
(g8
g9
NtRp694
(dp695
g12
g126
sg14
S'Purisa'
p696
sg16
I700
sg17
g13
sg18
g13
sg19
S'/usr/share/fonts/truetype/tlwg/Purisa-BoldOblique.ttf'
p697
sg21
g22
sbag7
(g8
g9
NtRp698
(dp699
g12
g126
sg14
S'Loma'
p700
sg16
I700
sg17
g13
sg18
g13
sg19
S'/usr/share/fonts/truetype/tlwg/Loma-BoldOblique.ttf'
p701
sg21
g22
sbag7
(g8
g9
NtRp702
(dp703
g12
g29
sg14
S'Courier New'
p704
sg16
I400
sg17
g13
sg18
g13
sg19
S'/usr/share/fonts/truetype/msttcorefonts/couri.ttf'
p705
sg21
g22
sbag7
(g8
g9
NtRp706
(dp707
g12
g13
sg14
S'TlwgTypewriter'
p708
sg16
I400
sg17
g13
sg18
g13
sg19
S'/usr/share/fonts/truetype/tlwg/TlwgTypewriter.ttf'
p709
sg21
g22
sbag7
(g8
g9
NtRp710
(dp711
g12
g29
sg14
S'Kinnari'
p712
sg16
I700
sg17
g13
sg18
g13
sg19
S'/usr/share/fonts/truetype/tlwg/Kinnari-BoldItalic.ttf'
p713
sg21
g22
sbag7
(g8
g9
NtRp714
(dp715
g12
g13
sg14
S'Ume UI Gothic'
p716
sg16
I400
sg17
g13
sg18
g13
sg19
S'/usr/share/fonts/truetype/horai-umefont/ume-ugo4.ttf'
p717
sg21
g22
sbag7
(g8
g9
NtRp718
(dp719
g12
g13
sg14
S'Ubuntu Mono'
p720
sg16
I700
sg17
g13
sg18
g13
sg19
S'/usr/share/fonts/truetype/ubuntu-font-family/UbuntuMono-B.ttf'
p721
sg21
g22
sbag7
(g8
g9
NtRp722
(dp723
g12
g13
sg14
S'esint10'
p724
sg16
I400
sg17
g13
sg18
g13
sg19
S'/usr/share/fonts/truetype/ttf-lyx/esint10.ttf'
p725
sg21
g22
sbag7
(g8
g9
NtRp726
(dp727
g12
g29
sg14
S'Droid Serif'
p728
sg16
I700
sg17
g13
sg18
g13
sg19
S'/usr/share/fonts/truetype/droid/DroidSerif-BoldItalic.ttf'
p729
sg21
g22
sbag7
(g8
g9
NtRp730
(dp731
g12
g13
sg14
S'Ume P Gothic S5'
p732
sg16
I400
sg17
g13
sg18
g13
sg19
S'/usr/share/fonts/truetype/horai-umefont/ume-pgs5.ttf'
p733
sg21
g22
sbag7
(g8
g9
NtRp734
(dp735
g12
g13
sg14
S'UnGungseo'
p736
sg16
I400
sg17
g13
sg18
g13
sg19
S'/usr/share/fonts/truetype/unfonts-core/UnGungseo.ttf'
p737
sg21
g22
sbag7
(g8
g9
NtRp738
(dp739
g12
g13
sg14
S'Arial Black'
p740
sg16
I900
sg17
g13
sg18
g13
sg19
S'/usr/share/fonts/truetype/msttcorefonts/ariblk.ttf'
p741
sg21
g22
sbag7
(g8
g9
NtRp742
(dp743
g12
g13
sg14
S'OpenSymbol'
p744
sg16
I400
sg17
g13
sg18
g13
sg19
S'/usr/share/fonts/truetype/openoffice/opens___.ttf'
p745
sg21
g22
sbag7
(g8
g9
NtRp746
(dp747
g12
g29
sg14
S'Verdana'
p748
sg16
I700
sg17
g13
sg18
g13
sg19
S'/usr/share/fonts/truetype/msttcorefonts/Verdana_Bold_Italic.ttf'
p749
sg21
g22
sbag7
(g8
g9
NtRp750
(dp751
g12
g13
sg14
S'gargi'
p752
sg16
I400
sg17
g13
sg18
g13
sg19
S'/usr/share/fonts/truetype/ttf-indic-fonts-core/gargi.ttf'
p753
sg21
g22
sbag7
(g8
g9
NtRp754
(dp755
g12
g29
sg14
S'Norasi'
p756
sg16
I400
sg17
g13
sg18
g13
sg19
S'/usr/share/fonts/truetype/tlwg/Norasi-Italic.ttf'
p757
sg21
g22
sbag7
(g8
g9
NtRp758
(dp759
g12
g29
sg14
S'Ubuntu'
p760
sg16
I700
sg17
g13
sg18
g13
sg19
S'/usr/share/fonts/truetype/ubuntu-font-family/Ubuntu-BI.ttf'
p761
sg21
g22
sbag7
(g8
g9
NtRp762
(dp763
g12
g13
sg14
S'Khmer OS System'
p764
sg16
I400
sg17
g13
sg18
g13
sg19
S'/usr/share/fonts/truetype/ttf-khmeros-core/KhmerOSsys.ttf'
p765
sg21
g22
sbag7
(g8
g9
NtRp766
(dp767
g12
g13
sg14
S'Comic Sans MS'
p768
sg16
I400
sg17
g13
sg18
g13
sg19
S'/usr/share/fonts/truetype/msttcorefonts/Comic_Sans_MS.ttf'
p769
sg21
g22
sbag7
(g8
g9
NtRp770
(dp771
g12
g126
sg14
S'Tlwg Typist'
p772
sg16
I400
sg17
g13
sg18
g13
sg19
S'/usr/share/fonts/truetype/tlwg/TlwgTypist-Oblique.ttf'
p773
sg21
g22
sbag7
(g8
g9
NtRp774
(dp775
g12
g13
sg14
S'Norasi'
p776
sg16
I400
sg17
g13
sg18
g13
sg19
S'/usr/share/fonts/truetype/tlwg/Norasi.ttf'
p777
sg21
g22
sbag7
(g8
g9
NtRp778
(dp779
g12
g29
sg14
S'DejaVu Serif'
p780
sg16
I400
sg17
g172
sg18
g13
sg19
S'/usr/share/fonts/truetype/ttf-dejavu/DejaVuSerifCondensed-Italic.ttf'
p781
sg21
g22
sbag7
(g8
g9
NtRp782
(dp783
g12
g13
sg14
S'Arial Black'
p784
sg16
I900
sg17
g13
sg18
g13
sg19
S'/usr/share/fonts/truetype/msttcorefonts/Arial_Black.ttf'
p785
sg21
g22
sbag7
(g8
g9
NtRp786
(dp787
g12
g13
sg14
S'Ume Gothic S4'
p788
sg16
I400
sg17
g13
sg18
g13
sg19
S'/usr/share/fonts/truetype/horai-umefont/ume-tgs4.ttf'
p789
sg21
g22
sbag7
(g8
g9
NtRp790
(dp791
g12
g13
sg14
S'Webdings'
p792
sg16
I400
sg17
g13
sg18
g13
sg19
S'/usr/share/fonts/truetype/msttcorefonts/Webdings.ttf'
p793
sg21
g22
sbag7
(g8
g9
NtRp794
(dp795
g12
g13
sg14
S'Mukti Narrow'
p796
sg16
I700
sg17
g13
sg18
g13
sg19
S'/usr/share/fonts/truetype/ttf-indic-fonts-core/MuktiNarrowBold.ttf'
p797
sg21
g22
sbag7
(g8
g9
NtRp798
(dp799
g12
g13
sg14
S'KacstOne'
p800
sg16
I700
sg17
g13
sg18
g13
sg19
S'/usr/share/fonts/truetype/kacst-one/KacstOne-Bold.ttf'
p801
sg21
g22
sbag7
(g8
g9
NtRp802
(dp803
g12
g126
sg14
S'Umpush'
p804
sg16
I700
sg17
g13
sg18
g13
sg19
S'/usr/share/fonts/truetype/tlwg/Umpush-BoldOblique.ttf'
p805
sg21
g22
sbag7
(g8
g9
NtRp806
(dp807
g12
g13
sg14
S'UnPilgi'
p808
sg16
I400
sg17
g13
sg18
g13
sg19
S'/usr/share/fonts/truetype/unfonts-core/UnPilgi.ttf'
p809
sg21
g22
sbag7
(g8
g9
NtRp810
(dp811
g12
g126
sg14
S'FreeSans'
p812
sg16
I700
sg17
g13
sg18
g13
sg19
S'/usr/share/fonts/truetype/freefont/FreeSansBoldOblique.ttf'
p813
sg21
g22
sbag7
(g8
g9
NtRp814
(dp815
g12
g13
sg14
S'Ume P Mincho'
p816
sg16
I400
sg17
g13
sg18
g13
sg19
S'/usr/share/fonts/truetype/horai-umefont/ume-pmo3.ttf'
p817
sg21
g22
sbag7
(g8
g9
NtRp818
(dp819
g12
g29
sg14
S'Droid Serif'
p820
sg16
I400
sg17
g13
sg18
g13
sg19
S'/usr/share/fonts/truetype/droid/DroidSerif-Italic.ttf'
p821
sg21
g22
sbag7
(g8
g9
NtRp822
(dp823
g12
g13
sg14
S'Tlwg Typo'
p824
sg16
I700
sg17
g13
sg18
g13
sg19
S'/usr/share/fonts/truetype/tlwg/TlwgTypo-Bold.ttf'
p825
sg21
g22
sbag7
(g8
g9
NtRp826
(dp827
g12
g13
sg14
S'Verdana'
p828
sg16
I400
sg17
g13
sg18
g13
sg19
S'/usr/share/fonts/truetype/msttcorefonts/verdana.ttf'
p829
sg21
g22
sbag7
(g8
g9
NtRp830
(dp831
g12
g29
sg14
S'Ubuntu'
p832
sg16
I400
sg17
g13
sg18
g13
sg19
S'/usr/share/fonts/truetype/ubuntu-font-family/Ubuntu-RI.ttf'
p833
sg21
g22
sbag7
(g8
g9
NtRp834
(dp835
g12
g126
sg14
S'FreeMono'
p836
sg16
I700
sg17
g13
sg18
g13
sg19
S'/usr/share/fonts/truetype/freefont/FreeMonoBoldOblique.ttf'
p837
sg21
g22
sbag7
(g8
g9
NtRp838
(dp839
g12
g29
sg14
S'Liberation Serif'
p840
sg16
I400
sg17
g13
sg18
g13
sg19
S'/usr/share/fonts/truetype/liberation/LiberationSerif-Italic.ttf'
p841
sg21
g22
sbag7
(g8
g9
NtRp842
(dp843
g12
g13
sg14
S'TlwgTypewriter'
p844
sg16
I700
sg17
g13
sg18
g13
sg19
S'/usr/share/fonts/truetype/tlwg/TlwgTypewriter-Bold.ttf'
p845
sg21
g22
sbag7
(g8
g9
NtRp846
(dp847
g12
g126
sg14
S'Waree'
p848
sg16
I700
sg17
g13
sg18
g13
sg19
S'/usr/share/fonts/truetype/tlwg/Waree-BoldOblique.ttf'
p849
sg21
g22
sbag7
(g8
g9
NtRp850
(dp851
g12
g13
sg14
S'FreeSans'
p852
sg16
I400
sg17
g13
sg18
g13
sg19
S'/usr/share/fonts/truetype/freefont/FreeSans.ttf'
p853
sg21
g22
sbag7
(g8
g9
NtRp854
(dp855
g12
g13
sg14
S'UnDinaru'
p856
sg16
I200
sg17
g13
sg18
g13
sg19
S'/usr/share/fonts/truetype/unfonts-core/UnDinaruLight.ttf'
p857
sg21
g22
sbag7
(g8
g9
NtRp858
(dp859
g12
g13
sg14
S'DejaVu Sans Mono'
p860
sg16
I700
sg17
g13
sg18
g13
sg19
S'/usr/share/fonts/truetype/ttf-dejavu/DejaVuSansMono-Bold.ttf'
p861
sg21
g22
sbag7
(g8
g9
NtRp862
(dp863
g12
g29
sg14
S'Arial'
p864
sg16
I400
sg17
g13
sg18
g13
sg19
S'/usr/share/fonts/truetype/msttcorefonts/ariali.ttf'
p865
sg21
g22
sbag7
(g8
g9
NtRp866
(dp867
g12
g29
sg14
S'FreeSerif'
p868
sg16
I700
sg17
g13
sg18
g13
sg19
S'/usr/share/fonts/truetype/freefont/FreeSerifBoldItalic.ttf'
p869
sg21
g22
sbag7
(g8
g9
NtRp870
(dp871
g12
g29
sg14
S'Trebuchet MS'
p872
sg16
I700
sg17
g13
sg18
g13
sg19
S'/usr/share/fonts/truetype/msttcorefonts/trebucbi.ttf'
p873
sg21
g22
sbag7
(g8
g9
NtRp874
(dp875
g12
g13
sg14
S'UnDinaru'
p876
sg16
I400
sg17
g13
sg18
g13
sg19
S'/usr/share/fonts/truetype/unfonts-core/UnDinaru.ttf'
p877
sg21
g22
sbag7
(g8
g9
NtRp878
(dp879
g12
g13
sg14
S'KacstArt'
p880
sg16
I400
sg17
g13
sg18
g13
sg19
S'/usr/share/fonts/truetype/kacst/KacstArt.ttf'
p881
sg21
g22
sbag7
(g8
g9
NtRp882
(dp883
g12
g13
sg14
S'Waree'
p884
sg16
I400
sg17
g13
sg18
g13
sg19
S'/usr/share/fonts/truetype/tlwg/Waree.ttf'
p885
sg21
g22
sbag7
(g8
g9
NtRp886
(dp887
g12
g13
sg14
S'Vemana2000'
p888
sg16
I400
sg17
g13
sg18
g13
sg19
S'/usr/share/fonts/truetype/ttf-indic-fonts-core/Vemana.ttf'
p889
sg21
g22
sbag7
(g8
g9
NtRp890
(dp891
g12
g13
sg14
S'Ume P Gothic O5'
p892
sg16
I400
sg17
g13
sg18
g13
sg19
S'/usr/share/fonts/truetype/horai-umefont/ume-pgo5.ttf'
p893
sg21
g22
sbag7
(g8
g9
NtRp894
(dp895
g12
g13
sg14
S'Umpush'
p896
sg16
I200
sg17
g13
sg18
g13
sg19
S'/usr/share/fonts/truetype/tlwg/Umpush-Light.ttf'
p897
sg21
g22
sbag7
(g8
g9
NtRp898
(dp899
g12
g29
sg14
S'Times New Roman'
p900
sg16
I500
sg17
g13
sg18
g13
sg19
S'/usr/share/fonts/truetype/msttcorefonts/timesi.ttf'
p901
sg21
g22
sbag7
(g8
g9
NtRp902
(dp903
g12
g29
sg14
S'Times New Roman'
p904
sg16
I500
sg17
g13
sg18
g13
sg19
S'/usr/share/fonts/truetype/msttcorefonts/Times_New_Roman_Italic.ttf'
p905
sg21
g22
sbag7
(g8
g9
NtRp906
(dp907
g12
g13
sg14
S'Kedage'
p908
sg16
I400
sg17
g13
sg18
g13
sg19
S'/usr/share/fonts/truetype/ttf-indic-fonts-core/Kedage-n.ttf'
p909
sg21
g22
sbag7
(g8
g9
NtRp910
(dp911
g12
g13
sg14
S'UnBatang'
p912
sg16
I700
sg17
g13
sg18
g13
sg19
S'/usr/share/fonts/truetype/unfonts-core/UnBatangBold.ttf'
p913
sg21
g22
sbag7
(g8
g9
NtRp914
(dp915
g12
g13
sg14
S'Lohit Tamil'
p916
sg16
I400
sg17
g13
sg18
g13
sg19
S'/usr/share/fonts/truetype/ttf-indic-fonts-core/lohit_ta.ttf'
p917
sg21
g22
sbag7
(g8
g9
NtRp918
(dp919
g12
g13
sg14
S'Liberation Sans'
p920
sg16
I400
sg17
g13
sg18
g13
sg19
S'/usr/share/fonts/truetype/liberation/LiberationSans-Regular.ttf'
p921
sg21
g22
sbag7
(g8
g9
NtRp922
(dp923
g12
g13
sg14
S'Ubuntu Condensed'
p924
sg16
I400
sg17
g172
sg18
g13
sg19
S'/usr/share/fonts/truetype/ubuntu-font-family/Ubuntu-C.ttf'
p925
sg21
g22
sbag7
(g8
g9
NtRp926
(dp927
g12
g13
sg14
S'Kinnari'
p928
sg16
I400
sg17
g13
sg18
g13
sg19
S'/usr/share/fonts/truetype/tlwg/Kinnari.ttf'
p929
sg21
g22
sbag7
(g8
g9
NtRp930
(dp931
g12
g29
sg14
S'Georgia'
p932
sg16
I700
sg17
g13
sg18
g13
sg19
S'/usr/share/fonts/truetype/msttcorefonts/georgiaz.ttf'
p933
sg21
g22
sbag7
(g8
g9
NtRp934
(dp935
g12
g29
sg14
S'Courier New'
p936
sg16
I700
sg17
g13
sg18
g13
sg19
S'/usr/share/fonts/truetype/msttcorefonts/Courier_New_Bold_Italic.ttf'
p937
sg21
g22
sbag7
(g8
g9
NtRp938
(dp939
g12
g13
sg14
S'Droid Sans Japanese'
p940
sg16
I400
sg17
g13
sg18
g13
sg19
S'/usr/share/fonts/truetype/droid/DroidSansJapanese.ttf'
p941
sg21
g22
sbag7
(g8
g9
NtRp942
(dp943
g12
g29
sg14
S'Ubuntu Mono'
p944
sg16
I700
sg17
g13
sg18
g13
sg19
S'/usr/share/fonts/truetype/ubuntu-font-family/UbuntuMono-BI.ttf'
p945
sg21
g22
sbag7
(g8
g9
NtRp946
(dp947
g12
g13
sg14
S'Arial'
p948
sg16
I700
sg17
g13
sg18
g13
sg19
S'/usr/share/fonts/truetype/msttcorefonts/arialbd.ttf'
p949
sg21
g22
sbag7
(g8
g9
NtRp950
(dp951
g12
g13
sg14
S'Times New Roman'
p952
sg16
I700
sg17
g13
sg18
g13
sg19
S'/usr/share/fonts/truetype/msttcorefonts/timesbd.ttf'
p953
sg21
g22
sbag7
(g8
g9
NtRp954
(dp955
g12
g13
sg14
S'Rachana'
p956
sg16
I400
sg17
g13
sg18
g13
sg19
S'/usr/share/fonts/truetype/ttf-indic-fonts-core/Rachana_04.ttf'
p957
sg21
g22
sbag7
(g8
g9
NtRp958
(dp959
g12
g13
sg14
S'Trebuchet MS'
p960
sg16
I700
sg17
g13
sg18
g13
sg19
S'/usr/share/fonts/truetype/msttcorefonts/Trebuchet_MS_Bold.ttf'
p961
sg21
g22
sbag7
(g8
g9
NtRp962
(dp963
g12
g13
sg14
S'Ume Gothic S5'
p964
sg16
I400
sg17
g13
sg18
g13
sg19
S'/usr/share/fonts/truetype/horai-umefont/ume-tgs5.ttf'
p965
sg21
g22
sbag7
(g8
g9
NtRp966
(dp967
g12
g126
sg14
S'TlwgMono'
p968
sg16
I700
sg17
g13
sg18
g13
sg19
S'/usr/share/fonts/truetype/tlwg/TlwgMono-BoldOblique.ttf'
p969
sg21
g22
sbag7
(g8
g9
NtRp970
(dp971
g12
g29
sg14
S'DejaVu Serif'
p972
sg16
I400
sg17
g13
sg18
g13
sg19
S'/usr/share/fonts/truetype/ttf-dejavu/DejaVuSerif-Italic.ttf'
p973
sg21
g22
sbag7
(g8
g9
NtRp974
(dp975
g12
g13
sg14
S'Droid Sans Thai'
p976
sg16
I400
sg17
g13
sg18
g13
sg19
S'/usr/share/fonts/truetype/droid/DroidSansThai.ttf'
p977
sg21
g22
sbag7
(g8
g9
NtRp978
(dp979
g12
g13
sg14
S'Kinnari'
p980
sg16
I700
sg17
g13
sg18
g13
sg19
S'/usr/share/fonts/truetype/tlwg/Kinnari-Bold.ttf'
p981
sg21
g22
sbag7
(g8
g9
NtRp982
(dp983
g12
g126
sg14
S'FreeMono'
p984
sg16
I400
sg17
g13
sg18
g13
sg19
S'/usr/share/fonts/truetype/freefont/FreeMonoOblique.ttf'
p985
sg21
g22
sbag7
(g8
g9
NtRp986
(dp987
g12
g13
sg14
S'TlwgMono'
p988
sg16
I400
sg17
g13
sg18
g13
sg19
S'/usr/share/fonts/truetype/tlwg/TlwgMono.ttf'
p989
sg21
g22
sbag7
(g8
g9
NtRp990
(dp991
g12
g126
sg14
S'TlwgTypewriter'
p992
sg16
I700
sg17
g13
sg18
g13
sg19
S'/usr/share/fonts/truetype/tlwg/TlwgTypewriter-BoldOblique.ttf'
p993
sg21
g22
sbag7
(g8
g9
NtRp994
(dp995
g12
g13
sg14
S'Droid Sans'
p996
sg16
I700
sg17
g13
sg18
g13
sg19
S'/usr/share/fonts/truetype/droid/DroidSans-Bold.ttf'
p997
sg21
g22
sbag7
(g8
g9
NtRp998
(dp999
g12
g126
sg14
S'Kinnari'
p1000
sg16
I400
sg17
g13
sg18
g13
sg19
S'/usr/share/fonts/truetype/tlwg/Kinnari-Oblique.ttf'
p1001
sg21
g22
sbag7
(g8
g9
NtRp1002
(dp1003
g12
g13
sg14
S'Ume Gothic'
p1004
sg16
I400
sg17
g13
sg18
g13
sg19
S'/usr/share/fonts/truetype/horai-umefont/ume-tgo4.ttf'
p1005
sg21
g22
sbag7
(g8
g9
NtRp1006
(dp1007
g12
g126
sg14
S'DejaVu Sans Mono'
p1008
sg16
I400
sg17
g13
sg18
g13
sg19
S'/usr/share/fonts/truetype/ttf-dejavu/DejaVuSansMono-Oblique.ttf'
p1009
sg21
g22
sbag7
(g8
g9
NtRp1010
(dp1011
g12
g13
sg14
S'Liberation Sans Narrow'
p1012
sg16
I400
sg17
g172
sg18
g13
sg19
S'/usr/share/fonts/truetype/liberation/LiberationSansNarrow-Regular.ttf'
p1013
sg21
g22
sbag7
(g8
g9
NtRp1014
(dp1015
g12
g29
sg14
S'Trebuchet MS'
p1016
sg16
I400
sg17
g13
sg18
g13
sg19
S'/usr/share/fonts/truetype/msttcorefonts/trebucit.ttf'
p1017
sg21
g22
sbag7
(g8
g9
NtRp1018
(dp1019
g12
g13
sg14
S'Ume Gothic C5'
p1020
sg16
I400
sg17
g13
sg18
g13
sg19
S'/usr/share/fonts/truetype/horai-umefont/ume-tgc5.ttf'
p1021
sg21
g22
sbag7
(g8
g9
NtRp1022
(dp1023
g12
g29
sg14
S'Times New Roman'
p1024
sg16
I700
sg17
g13
sg18
g13
sg19
S'/usr/share/fonts/truetype/msttcorefonts/timesbi.ttf'
p1025
sg21
g22
sbag7
(g8
g9
NtRp1026
(dp1027
g12
g13
sg14
S'Ume Gothic C4'
p1028
sg16
I400
sg17
g13
sg18
g13
sg19
S'/usr/share/fonts/truetype/horai-umefont/ume-tgc4.ttf'
p1029
sg21
g22
sbag7
(g8
g9
NtRp1030
(dp1031
g12
g126
sg14
S'Purisa'
p1032
sg16
I400
sg17
g13
sg18
g13
sg19
S'/usr/share/fonts/truetype/tlwg/Purisa-Oblique.ttf'
p1033
sg21
g22
sbag7
(g8
g9
NtRp1034
(dp1035
g12
g13
sg14
S'Ume P Gothic C4'
p1036
sg16
I400
sg17
g13
sg18
g13
sg19
S'/usr/share/fonts/truetype/horai-umefont/ume-pgc4.ttf'
p1037
sg21
g22
sbag7
(g8
g9
NtRp1038
(dp1039
g12
g29
sg14
S'Kinnari'
p1040
sg16
I400
sg17
g13
sg18
g13
sg19
S'/usr/share/fonts/truetype/tlwg/Kinnari-Italic.ttf'
p1041
sg21
g22
sbag7
(g8
g9
NtRp1042
(dp1043
g12
g126
sg14
S'Sawasdee'
p1044
sg16
I700
sg17
g13
sg18
g13
sg19
S'/usr/share/fonts/truetype/tlwg/Sawasdee-BoldOblique.ttf'
p1045
sg21
g22
sbag7
(g8
g9
NtRp1046
(dp1047
g12
g13
sg14
S'Sawasdee'
p1048
sg16
I700
sg17
g13
sg18
g13
sg19
S'/usr/share/fonts/truetype/tlwg/Sawasdee-Bold.ttf'
p1049
sg21
g22
sbag7
(g8
g9
NtRp1050
(dp1051
g12
g29
sg14
S'Arial'
p1052
sg16
I700
sg17
g13
sg18
g13
sg19
S'/usr/share/fonts/truetype/msttcorefonts/Arial_Bold_Italic.ttf'
p1053
sg21
g22
sbag7
(g8
g9
NtRp1054
(dp1055
g12
g13
sg14
S'DejaVu Serif'
p1056
sg16
I400
sg17
g172
sg18
g13
sg19
S'/usr/share/fonts/truetype/ttf-dejavu/DejaVuSerifCondensed.ttf'
p1057
sg21
g22
sbag7
(g8
g9
NtRp1058
(dp1059
g12
g13
sg14
S'Saab'
p1060
sg16
I400
sg17
g13
sg18
g13
sg19
S'/usr/share/fonts/truetype/ttf-punjabi-fonts/Saab.ttf'
p1061
sg21
g22
sbag7
(g8
g9
NtRp1062
(dp1063
g12
g13
sg14
S'KacstOffice'
p1064
sg16
I400
sg17
g13
sg18
g13
sg19
S'/usr/share/fonts/truetype/kacst/KacstOffice.ttf'
p1065
sg21
g22
sbag7
(g8
g9
NtRp1066
(dp1067
g12
g29
sg14
S'Norasi'
p1068
sg16
I700
sg17
g13
sg18
g13
sg19
S'/usr/share/fonts/truetype/tlwg/Norasi-BoldItalic.ttf'
p1069
sg21
g22
sbag7
(g8
g9
NtRp1070
(dp1071
g12
g13
sg14
S'Arial'
p1072
sg16
I400
sg17
g13
sg18
g13
sg19
S'/usr/share/fonts/truetype/msttcorefonts/arial.ttf'
p1073
sg21
g22
sbag7
(g8
g9
NtRp1074
(dp1075
g12
g13
sg14
S'UnBatang'
p1076
sg16
I400
sg17
g13
sg18
g13
sg19
S'/usr/share/fonts/truetype/unfonts-core/UnBatang.ttf'
p1077
sg21
g22
sbag7
(g8
g9
NtRp1078
(dp1079
g12
g126
sg14
S'Sawasdee'
p1080
sg16
I400
sg17
g13
sg18
g13
sg19
S'/usr/share/fonts/truetype/tlwg/Sawasdee-Oblique.ttf'
p1081
sg21
g22
sbag7
(g8
g9
NtRp1082
(dp1083
g12
g13
sg14
S'Impact'
p1084
sg16
I400
sg17
g13
sg18
g13
sg19
S'/usr/share/fonts/truetype/msttcorefonts/impact.ttf'
p1085
sg21
g22
sbag7
(g8
g9
NtRp1086
(dp1087
g12
g13
sg14
S'NanumMyeongjo'
p1088
sg16
I400
sg17
g13
sg18
g13
sg19
S'/usr/share/fonts/truetype/nanum/NanumMyeongjo.ttf'
p1089
sg21
g22
sbag7
(g8
g9
NtRp1090
(dp1091
g12
g13
sg14
S'Khmer OS'
p1092
sg16
I400
sg17
g13
sg18
g13
sg19
S'/usr/share/fonts/truetype/ttf-khmeros-core/KhmerOS.ttf'
p1093
sg21
g22
sbag7
(g8
g9
NtRp1094
(dp1095
g12
g13
sg14
S'Verdana'
p1096
sg16
I700
sg17
g13
sg18
g13
sg19
S'/usr/share/fonts/truetype/msttcorefonts/Verdana_Bold.ttf'
p1097
sg21
g22
sbag7
(g8
g9
NtRp1098
(dp1099
g12
g13
sg14
S'Loma'
p1100
sg16
I400
sg17
g13
sg18
g13
sg19
S'/usr/share/fonts/truetype/tlwg/Loma.ttf'
p1101
sg21
g22
sbag7
(g8
g9
NtRp1102
(dp1103
g12
g126
sg14
S'Garuda'
p1104
sg16
I400
sg17
g13
sg18
g13
sg19
S'/usr/share/fonts/truetype/tlwg/Garuda-Oblique.ttf'
p1105
sg21
g22
sbag7
(g8
g9
NtRp1106
(dp1107
g12
g13
sg14
S'Loma'
p1108
sg16
I700
sg17
g13
sg18
g13
sg19
S'/usr/share/fonts/truetype/tlwg/Loma-Bold.ttf'
p1109
sg21
g22
sbag7
(g8
g9
NtRp1110
(dp1111
g12
g13
sg14
S'UnPilgi'
p1112
sg16
I700
sg17
g13
sg18
g13
sg19
S'/usr/share/fonts/truetype/unfonts-core/UnPilgiBold.ttf'
p1113
sg21
g22
sbag7
(g8
g9
NtRp1114
(dp1115
g12
g126
sg14
S'Garuda'
p1116
sg16
I700
sg17
g13
sg18
g13
sg19
S'/usr/share/fonts/truetype/tlwg/Garuda-BoldOblique.ttf'
p1117
sg21
g22
sbag7
(g8
g9
NtRp1118
(dp1119
g12
g13
sg14
S'KacstLetter'
p1120
sg16
I400
sg17
g13
sg18
g13
sg19
S'/usr/share/fonts/truetype/kacst/KacstLetter.ttf'
p1121
sg21
g22
sbag7
(g8
g9
NtRp1122
(dp1123
g12
g13
sg14
S'Droid Sans Arabic'
p1124
sg16
I400
sg17
g13
sg18
g13
sg19
S'/usr/share/fonts/truetype/droid/DroidSansArabic.ttf'
p1125
sg21
g22
sbag7
(g8
g9
NtRp1126
(dp1127
g12
g13
sg14
S'KacstPen'
p1128
sg16
I400
sg17
g13
sg18
g13
sg19
S'/usr/share/fonts/truetype/kacst/KacstPen.ttf'
p1129
sg21
g22
sbag7
(g8
g9
NtRp1130
(dp1131
g12
g126
sg14
S'Tlwg Typo'
p1132
sg16
I700
sg17
g13
sg18
g13
sg19
S'/usr/share/fonts/truetype/tlwg/TlwgTypo-BoldOblique.ttf'
p1133
sg21
g22
sbag7
(g8
g9
NtRp1134
(dp1135
g12
g13
sg14
S'msam10'
p1136
sg16
I400
sg17
g13
sg18
g13
sg19
S'/usr/share/fonts/truetype/ttf-lyx/msam10.ttf'
p1137
sg21
g22
sbag7
(g8
g9
NtRp1138
(dp1139
g12
g13
sg14
S'Trebuchet MS'
p1140
sg16
I700
sg17
g13
sg18
g13
sg19
S'/usr/share/fonts/truetype/msttcorefonts/trebucbd.ttf'
p1141
sg21
g22
sbag7
(g8
g9
NtRp1142
(dp1143
g12
g13
sg14
S'Ubuntu'
p1144
sg16
I700
sg17
g13
sg18
g13
sg19
S'/usr/share/fonts/truetype/ubuntu-font-family/Ubuntu-B.ttf'
p1145
sg21
g22
sbag7
(g8
g9
NtRp1146
(dp1147
g12
g13
sg14
S'Untitled1'
p1148
sg16
I400
sg17
g13
sg18
g13
sg19
S'/usr/share/fonts/truetype/freefont/Untitled1.ttf'
p1149
sg21
g22
sbag7
(g8
g9
NtRp1150
(dp1151
g12
g29
sg14
S'Trebuchet MS'
p1152
sg16
I700
sg17
g13
sg18
g13
sg19
S'/usr/share/fonts/truetype/msttcorefonts/Trebuchet_MS_Bold_Italic.ttf'
p1153
sg21
g22
sbag7
(g8
g9
NtRp1154
(dp1155
g12
g13
sg14
S'Comic Sans MS'
p1156
sg16
I400
sg17
g13
sg18
g13
sg19
S'/usr/share/fonts/truetype/msttcorefonts/comic.ttf'
p1157
sg21
g22
sbag7
(g8
g9
NtRp1158
(dp1159
g12
g13
sg14
S'Mukti Narrow'
p1160
sg16
I400
sg17
g13
sg18
g13
sg19
S'/usr/share/fonts/truetype/ttf-indic-fonts-core/MuktiNarrow.ttf'
p1161
sg21
g22
sbag7
(g8
g9
NtRp1162
(dp1163
g12
g29
sg14
S'FreeSerif'
p1164
sg16
I400
sg17
g13
sg18
g13
sg19
S'/usr/share/fonts/truetype/freefont/FreeSerifItalic.ttf'
p1165
sg21
g22
sbag7
(g8
g9
NtRp1166
(dp1167
g12
g13
sg14
S'Ubuntu'
p1168
sg16
I200
sg17
g13
sg18
g13
sg19
S'/usr/share/fonts/truetype/ubuntu-font-family/Ubuntu-L.ttf'
p1169
sg21
g22
sbag7
(g8
g9
NtRp1170
(dp1171
g12
g13
sg14
S'Courier New'
p1172
sg16
I700
sg17
g13
sg18
g13
sg19
S'/usr/share/fonts/truetype/msttcorefonts/courbd.ttf'
p1173
sg21
g22
sbag7
(g8
g9
NtRp1174
(dp1175
g12
g13
sg14
S'mry_KacstQurn'
p1176
sg16
I400
sg17
g13
sg18
g13
sg19
S'/usr/share/fonts/truetype/kacst/mry_KacstQurn.ttf'
p1177
sg21
g22
sbag7
(g8
g9
NtRp1178
(dp1179
g12
g13
sg14
S'KacstDecorative'
p1180
sg16
I400
sg17
g13
sg18
g13
sg19
S'/usr/share/fonts/truetype/kacst/KacstDecorative.ttf'
p1181
sg21
g22
sbag7
(g8
g9
NtRp1182
(dp1183
g12
g126
sg14
S'TlwgTypewriter'
p1184
sg16
I400
sg17
g13
sg18
g13
sg19
S'/usr/share/fonts/truetype/tlwg/TlwgTypewriter-Oblique.ttf'
p1185
sg21
g22
sbag7
(g8
g9
NtRp1186
(dp1187
g12
g29
sg14
S'Liberation Sans Narrow'
p1188
sg16
I400
sg17
g172
sg18
g13
sg19
S'/usr/share/fonts/truetype/liberation/LiberationSansNarrow-Italic.ttf'
p1189
sg21
g22
sbag7
(g8
g9
NtRp1190
(dp1191
g12
g13
sg14
S'Times New Roman'
p1192
sg16
I700
sg17
g13
sg18
g13
sg19
S'/usr/share/fonts/truetype/msttcorefonts/Times_New_Roman_Bold.ttf'
p1193
sg21
g22
sbasS'defaultFamily'
p1194
(dp1195
S'afm'
p1196
S'Helvetica'
p1197
sS'ttf'
p1198
S'Bitstream Vera Sans'
p1199
ssS'ttffiles'
p1200
(lp1201
S'/usr/share/matplotlib/mpl-data/fonts/ttf/cmb10.ttf'
p1202
aS'/usr/share/matplotlib/mpl-data/fonts/ttf/cmex10.ttf'
p1203
aS'/usr/share/matplotlib/mpl-data/fonts/ttf/STIXNonUniIta.ttf'
p1204
aS'/usr/share/matplotlib/mpl-data/fonts/ttf/STIXNonUni.ttf'
p1205
aS'/usr/share/matplotlib/mpl-data/fonts/ttf/STIXSizThreeSymReg.ttf'
p1206
aS'/usr/share/matplotlib/mpl-data/fonts/ttf/STIXSizTwoSymBol.ttf'
p1207
aS'/usr/share/matplotlib/mpl-data/fonts/ttf/cmtt10.ttf'
p1208
aS'/usr/share/matplotlib/mpl-data/fonts/ttf/STIXGeneral.ttf'
p1209
aS'/usr/share/matplotlib/mpl-data/fonts/ttf/STIXNonUniBolIta.ttf'
p1210
aS'/usr/share/matplotlib/mpl-data/fonts/ttf/STIXSizFiveSymReg.ttf'
p1211
aS'/usr/share/matplotlib/mpl-data/fonts/ttf/STIXSizOneSymBol.ttf'
p1212
aS'/usr/share/matplotlib/mpl-data/fonts/ttf/STIXGeneralBol.ttf'
p1213
aS'/usr/share/matplotlib/mpl-data/fonts/ttf/cmr10.ttf'
p1214
aS'/usr/share/matplotlib/mpl-data/fonts/ttf/STIXSizTwoSymReg.ttf'
p1215
aS'/usr/share/matplotlib/mpl-data/fonts/ttf/STIXSizOneSymReg.ttf'
p1216
aS'/usr/share/matplotlib/mpl-data/fonts/ttf/cmsy10.ttf'
p1217
aS'/usr/share/matplotlib/mpl-data/fonts/ttf/STIXSizThreeSymBol.ttf'
p1218
aS'/usr/share/matplotlib/mpl-data/fonts/ttf/cmss10.ttf'
p1219
aS'/usr/share/matplotlib/mpl-data/fonts/ttf/STIXSizFourSymBol.ttf'
p1220
aS'/usr/share/matplotlib/mpl-data/fonts/ttf/STIXGeneralItalic.ttf'
p1221
aS'/usr/share/matplotlib/mpl-data/fonts/ttf/cmmi10.ttf'
p1222
aS'/usr/share/matplotlib/mpl-data/fonts/ttf/STIXNonUniBol.ttf'
p1223
aS'/usr/share/matplotlib/mpl-data/fonts/ttf/STIXGeneralBolIta.ttf'
p1224
aS'/usr/share/matplotlib/mpl-data/fonts/ttf/STIXSizFourSymReg.ttf'
p1225
aS'/usr/share/fonts/truetype/msttcorefonts/webdings.ttf'
p1226
aS'/usr/share/fonts/truetype/kacst/KacstTitle.ttf'
p1227
aS'/usr/share/fonts/truetype/tlwg/TlwgTypo-Oblique.ttf'
p1228
aS'/usr/share/fonts/truetype/ttf-indic-fonts-core/Malige-b.ttf'
p1229
aS'/usr/share/fonts/truetype/msttcorefonts/verdanab.ttf'
p1230
aS'/usr/share/fonts/truetype/tlwg/Umpush.ttf'
p1231
aS'/usr/share/fonts/truetype/horai-umefont/ume-tgo5.ttf'
p1232
aS'/usr/share/fonts/truetype/tlwg/Garuda-Bold.ttf'
p1233
aS'/usr/share/fonts/truetype/msttcorefonts/Times_New_Roman.ttf'
p1234
aS'/usr/share/fonts/truetype/horai-umefont/ume-tms3.ttf'
p1235
aS'/usr/share/fonts/truetype/msttcorefonts/verdanai.ttf'
p1236
aS'/usr/share/fonts/truetype/freefont/FreeSerif.ttf'
p1237
aS'/usr/share/fonts/truetype/ttf-lyx/rsfs10.ttf'
p1238
aS'/usr/share/fonts/truetype/ttf-dejavu/DejaVuSansCondensed.ttf'
p1239
aS'/usr/share/fonts/truetype/tlwg/Loma-Oblique.ttf'
p1240
aS'/usr/share/fonts/truetype/tlwg/Norasi-Oblique.ttf'
p1241
aS'/usr/share/fonts/truetype/tlwg/Kinnari-BoldOblique.ttf'
p1242
aS'/usr/share/fonts/truetype/msttcorefonts/Arial_Bold.ttf'
p1243
aS'/usr/share/fonts/truetype/kacst/KacstPoster.ttf'
p1244
aS'/usr/share/fonts/truetype/ttf-dejavu/DejaVuSansMono.ttf'
p1245
aS'/usr/share/fonts/truetype/ttf-punjabi-fonts/lohit_pa.ttf'
p1246
aS'/usr/share/fonts/truetype/droid/DroidSerif-Bold.ttf'
p1247
aS'/usr/share/fonts/truetype/ttf-indic-fonts-core/Meera_04.ttf'
p1248
aS'/usr/share/fonts/truetype/fonts-japanese-gothic.ttf'
p1249
aS'/usr/share/fonts/truetype/msttcorefonts/Arial_Italic.ttf'
p1250
aS'/usr/share/fonts/truetype/unfonts-core/UnDotum.ttf'
p1251
aS'/usr/share/fonts/truetype/msttcorefonts/Georgia_Bold.ttf'
p1252
aS'/usr/share/fonts/truetype/tlwg/Umpush-LightOblique.ttf'
p1253
aS'/usr/share/fonts/truetype/freefont/FreeSerifBold.ttf'
p1254
aS'/usr/share/fonts/truetype/tlwg/Waree-Oblique.ttf'
p1255
aS'/usr/share/fonts/truetype/tlwg/TlwgTypo.ttf'
p1256
aS'/usr/share/fonts/truetype/ttf-dejavu/DejaVuSerif-Bold.ttf'
p1257
aS'/usr/share/fonts/truetype/msttcorefonts/georgiab.ttf'
p1258
aS'/usr/share/fonts/truetype/ttf-dejavu/DejaVuSerif.ttf'
p1259
aS'/usr/share/fonts/truetype/liberation/LiberationSansNarrow-Bold.ttf'
p1260
aS'/usr/share/fonts/truetype/freefont/FreeSansOblique.ttf'
p1261
aS'/usr/share/fonts/truetype/msttcorefonts/Comic_Sans_MS_Bold.ttf'
p1262
aS'/usr/share/fonts/truetype/liberation/LiberationMono-Regular.ttf'
p1263
aS'/usr/share/fonts/truetype/liberation/LiberationSans-Bold.ttf'
p1264
aS'/usr/share/fonts/truetype/kacst/KacstTitleL.ttf'
p1265
aS'/usr/share/fonts/truetype/ttf-indic-fonts-core/lohit_hi.ttf'
p1266
aS'/usr/share/fonts/truetype/msttcorefonts/Courier_New_Bold.ttf'
p1267
aS'/usr/share/fonts/truetype/msttcorefonts/Georgia_Bold_Italic.ttf'
p1268
aS'/usr/share/fonts/truetype/ttf-dejavu/DejaVuSans-Oblique.ttf'
p1269
aS'/usr/share/fonts/truetype/horai-umefont/ume-pms3.ttf'
p1270
aS'/usr/share/fonts/truetype/horai-umefont/ume-pgs4.ttf'
p1271
aS'/usr/share/fonts/truetype/ubuntu-font-family/Ubuntu-R.ttf'
p1272
aS'/usr/share/fonts/truetype/msttcorefonts/Times_New_Roman_Bold_Italic.ttf'
p1273
aS'/usr/share/fonts/truetype/ttf-lyx/eufm10.ttf'
p1274
aS'/usr/share/fonts/truetype/horai-umefont/ume-tmo3.ttf'
p1275
aS'/usr/share/fonts/truetype/ttf-dejavu/DejaVuSans-BoldOblique.ttf'
p1276
aS'/usr/share/fonts/truetype/tlwg/TlwgTypist.ttf'
p1277
aS'/usr/share/fonts/truetype/nanum/NanumGothic.ttf'
p1278
aS'/usr/share/fonts/truetype/ttf-lyx/wasy10.ttf'
p1279
aS'/usr/share/fonts/truetype/horai-umefont/ume-pgo4.ttf'
p1280
aS'/usr/share/fonts/truetype/msttcorefonts/Impact.ttf'
p1281
aS'/usr/share/fonts/truetype/ttf-dejavu/DejaVuSansCondensed-BoldOblique.ttf'
p1282
aS'/usr/share/fonts/truetype/msttcorefonts/Georgia.ttf'
p1283
aS'/usr/share/fonts/truetype/tlwg/TlwgMono-Oblique.ttf'
p1284
aS'/usr/share/fonts/truetype/ttf-lyx/msbm10.ttf'
p1285
aS'/usr/share/fonts/truetype/tlwg/TlwgMono-Bold.ttf'
p1286
aS'/usr/share/fonts/truetype/liberation/LiberationMono-Italic.ttf'
p1287
aS'/usr/share/fonts/truetype/liberation/LiberationSerif-BoldItalic.ttf'
p1288
aS'/usr/share/fonts/truetype/msttcorefonts/andalemo.ttf'
p1289
aS'/usr/share/fonts/truetype/ttf-dejavu/DejaVuSans.ttf'
p1290
aS'/usr/share/fonts/truetype/msttcorefonts/arialbi.ttf'
p1291
aS'/usr/share/fonts/truetype/liberation/LiberationSerif-Bold.ttf'
p1292
aS'/usr/share/fonts/truetype/liberation/LiberationSans-Italic.ttf'
p1293
aS'/usr/share/fonts/truetype/msttcorefonts/Verdana.ttf'
p1294
aS'/usr/share/fonts/truetype/nanum/NanumMyeongjoBold.ttf'
p1295
aS'/usr/share/fonts/truetype/tlwg/Waree-Bold.ttf'
p1296
aS'/usr/share/fonts/truetype/unfonts-core/UnGraphic.ttf'
p1297
aS'/usr/share/fonts/truetype/ttf-indic-fonts-core/Pothana2000.ttf'
p1298
aS'/usr/share/fonts/truetype/horai-umefont/ume-pgc5.ttf'
p1299
aS'/usr/share/fonts/truetype/lao/Phetsarath_OT.ttf'
p1300
aS'/usr/share/fonts/truetype/ttf-dejavu/DejaVuSansCondensed-Oblique.ttf'
p1301
aS'/usr/share/fonts/truetype/msttcorefonts/cour.ttf'
p1302
aS'/usr/share/fonts/truetype/ttf-indic-fonts-core/utkal.ttf'
p1303
aS'/usr/share/fonts/truetype/kacst/KacstQurn.ttf'
p1304
aS'/usr/share/fonts/truetype/kacst/KacstDigital.ttf'
p1305
aS'/usr/share/fonts/truetype/takao-gothic/TakaoPGothic.ttf'
p1306
aS'/usr/share/fonts/truetype/droid/DroidSans.ttf'
p1307
aS'/usr/share/fonts/truetype/ttf-dejavu/DejaVuSerif-BoldItalic.ttf'
p1308
aS'/usr/share/fonts/truetype/kacst/KacstScreen.ttf'
p1309
aS'/usr/share/fonts/truetype/msttcorefonts/Trebuchet_MS.ttf'
p1310
aS'/usr/share/fonts/truetype/unfonts-core/UnDotumBold.ttf'
p1311
aS'/usr/share/fonts/truetype/horai-umefont/ume-ugo5.ttf'
p1312
aS'/usr/share/fonts/truetype/ttf-indic-fonts-core/Kedage-b.ttf'
p1313
aS'/usr/share/fonts/truetype/ttf-dejavu/DejaVuSerifCondensed-Bold.ttf'
p1314
aS'/usr/share/fonts/truetype/ubuntu-font-family/UbuntuMono-R.ttf'
p1315
aS'/usr/share/fonts/truetype/droid/DroidSansHebrew.ttf'
p1316
aS'/usr/share/fonts/truetype/msttcorefonts/Trebuchet_MS_Italic.ttf'
p1317
aS'/usr/share/fonts/truetype/msttcorefonts/Courier_New.ttf'
p1318
aS'/usr/share/fonts/truetype/msttcorefonts/comicbd.ttf'
p1319
aS'/usr/share/fonts/truetype/tlwg/Norasi-Bold.ttf'
p1320
aS'/usr/share/fonts/truetype/droid/DroidSerif-Regular.ttf'
p1321
aS'/usr/share/fonts/truetype/msttcorefonts/Arial.ttf'
p1322
aS'/usr/share/fonts/truetype/tlwg/Umpush-Bold.ttf'
p1323
aS'/usr/share/fonts/truetype/msttcorefonts/courbi.ttf'
p1324
aS'/usr/share/fonts/truetype/msttcorefonts/times.ttf'
p1325
aS'/usr/share/fonts/truetype/ttf-dejavu/DejaVuSansCondensed-Bold.ttf'
p1326
aS'/usr/share/fonts/truetype/msttcorefonts/Verdana_Italic.ttf'
p1327
aS'/usr/share/fonts/truetype/unfonts-core/UnGraphicBold.ttf'
p1328
aS'/usr/share/fonts/truetype/freefont/FreeMono.ttf'
p1329
aS'/usr/share/fonts/truetype/ttf-indic-fonts-core/Malige-n.ttf'
p1330
aS'/usr/share/fonts/truetype/kacst/KacstNaskh.ttf'
p1331
aS'/usr/share/fonts/truetype/ttf-indic-fonts-core/Rekha.ttf'
p1332
aS'/usr/share/fonts/truetype/liberation/LiberationSansNarrow-BoldItalic.ttf'
p1333
aS'/usr/share/fonts/truetype/tlwg/Norasi-BoldOblique.ttf'
p1334
aS'/usr/share/fonts/truetype/msttcorefonts/trebuc.ttf'
p1335
aS'/usr/share/fonts/truetype/ttf-dejavu/DejaVuSerifCondensed-BoldItalic.ttf'
p1336
aS'/usr/share/fonts/truetype/tlwg/Sawasdee.ttf'
p1337
aS'/usr/share/fonts/truetype/kacst-one/KacstOne.ttf'
p1338
aS'/usr/share/fonts/truetype/ttf-indic-fonts-core/lohit_gu.ttf'
p1339
aS'/usr/share/fonts/truetype/unfonts-core/UnDinaruBold.ttf'
p1340
aS'/usr/share/fonts/truetype/freefont/FreeSansBold.ttf'
p1341
aS'/usr/share/fonts/truetype/liberation/LiberationMono-Bold.ttf'
p1342
aS'/usr/share/fonts/truetype/tlwg/TlwgTypist-BoldOblique.ttf'
p1343
aS'/usr/share/fonts/truetype/ttf-indic-fonts-core/lohit_bn.ttf'
p1344
aS'/usr/share/fonts/truetype/tlwg/Garuda.ttf'
p1345
aS'/usr/share/fonts/truetype/ubuntu-font-family/UbuntuMono-RI.ttf'
p1346
aS'/usr/share/fonts/truetype/liberation/LiberationSerif-Regular.ttf'
p1347
aS'/usr/share/fonts/truetype/ttf-dejavu/DejaVuSansMono-BoldOblique.ttf'
p1348
aS'/usr/share/fonts/truetype/tlwg/Purisa-Bold.ttf'
p1349
aS'/usr/share/fonts/truetype/freefont/FreeMonoBold.ttf'
p1350
aS'/usr/share/fonts/truetype/ttf-dejavu/DejaVuSans-Bold.ttf'
p1351
aS'/usr/share/fonts/truetype/tlwg/TlwgTypist-Bold.ttf'
p1352
aS'/usr/share/fonts/truetype/ttf-dejavu/DejaVuSans-ExtraLight.ttf'
p1353
aS'/usr/share/fonts/truetype/msttcorefonts/georgia.ttf'
p1354
aS'/usr/share/fonts/truetype/kacst/KacstBook.ttf'
p1355
aS'/usr/share/fonts/truetype/kacst/KacstFarsi.ttf'
p1356
aS'/usr/share/fonts/truetype/msttcorefonts/verdanaz.ttf'
p1357
aS'/usr/share/fonts/truetype/tlwg/Purisa.ttf'
p1358
aS'/usr/share/fonts/truetype/droid/DroidSansFallback.ttf'
p1359
aS'/usr/share/fonts/truetype/msttcorefonts/georgiai.ttf'
p1360
aS'/usr/share/fonts/truetype/msttcorefonts/Andale_Mono.ttf'
p1361
aS'/usr/share/fonts/truetype/liberation/LiberationSans-BoldItalic.ttf'
p1362
aS'/usr/share/fonts/truetype/msttcorefonts/Georgia_Italic.ttf'
p1363
aS'/usr/share/fonts/truetype/ubuntu-font-family/Ubuntu-LI.ttf'
p1364
aS'/usr/share/fonts/truetype/ttf-lyx/cmmi10.ttf'
p1365
aS'/usr/share/fonts/truetype/droid/DroidSansMono.ttf'
p1366
aS'/usr/share/fonts/truetype/msttcorefonts/Courier_New_Italic.ttf'
p1367
aS'/usr/share/fonts/truetype/tlwg/Umpush-Oblique.ttf'
p1368
aS'/usr/share/fonts/truetype/nanum/NanumGothicBold.ttf'
p1369
aS'/usr/share/fonts/truetype/liberation/LiberationMono-BoldItalic.ttf'
p1370
aS'/usr/share/fonts/truetype/tlwg/Purisa-BoldOblique.ttf'
p1371
aS'/usr/share/fonts/truetype/tlwg/Loma-BoldOblique.ttf'
p1372
aS'/usr/share/fonts/truetype/msttcorefonts/couri.ttf'
p1373
aS'/usr/share/fonts/truetype/tlwg/TlwgTypewriter.ttf'
p1374
aS'/usr/share/fonts/truetype/tlwg/Kinnari-BoldItalic.ttf'
p1375
aS'/usr/share/fonts/truetype/horai-umefont/ume-ugo4.ttf'
p1376
aS'/usr/share/fonts/truetype/ubuntu-font-family/UbuntuMono-B.ttf'
p1377
aS'/usr/share/fonts/truetype/ttf-lyx/esint10.ttf'
p1378
aS'/usr/share/fonts/truetype/droid/DroidSerif-BoldItalic.ttf'
p1379
aS'/usr/share/fonts/truetype/horai-umefont/ume-pgs5.ttf'
p1380
aS'/usr/share/fonts/truetype/unfonts-core/UnGungseo.ttf'
p1381
aS'/usr/share/fonts/truetype/msttcorefonts/ariblk.ttf'
p1382
aS'/usr/share/fonts/truetype/openoffice/opens___.ttf'
p1383
aS'/usr/share/fonts/truetype/msttcorefonts/Verdana_Bold_Italic.ttf'
p1384
aS'/usr/share/fonts/truetype/ttf-indic-fonts-core/gargi.ttf'
p1385
aS'/usr/share/fonts/truetype/tlwg/Norasi-Italic.ttf'
p1386
aS'/usr/share/fonts/truetype/ubuntu-font-family/Ubuntu-BI.ttf'
p1387
aS'/usr/share/fonts/truetype/ttf-khmeros-core/KhmerOSsys.ttf'
p1388
aS'/usr/share/fonts/truetype/msttcorefonts/Comic_Sans_MS.ttf'
p1389
aS'/usr/share/fonts/truetype/tlwg/TlwgTypist-Oblique.ttf'
p1390
aS'/usr/share/fonts/truetype/tlwg/Norasi.ttf'
p1391
aS'/usr/share/fonts/truetype/ttf-dejavu/DejaVuSerifCondensed-Italic.ttf'
p1392
aS'/usr/share/fonts/truetype/msttcorefonts/Arial_Black.ttf'
p1393
aS'/usr/share/fonts/truetype/horai-umefont/ume-tgs4.ttf'
p1394
aS'/usr/share/fonts/truetype/msttcorefonts/Webdings.ttf'
p1395
aS'/usr/share/fonts/truetype/ttf-indic-fonts-core/MuktiNarrowBold.ttf'
p1396
aS'/usr/share/fonts/truetype/kacst-one/KacstOne-Bold.ttf'
p1397
aS'/usr/share/fonts/truetype/tlwg/Umpush-BoldOblique.ttf'
p1398
aS'/usr/share/fonts/truetype/unfonts-core/UnPilgi.ttf'
p1399
aS'/usr/share/fonts/truetype/freefont/FreeSansBoldOblique.ttf'
p1400
aS'/usr/share/fonts/truetype/horai-umefont/ume-pmo3.ttf'
p1401
aS'/usr/share/fonts/truetype/droid/DroidSerif-Italic.ttf'
p1402
aS'/usr/share/fonts/truetype/tlwg/TlwgTypo-Bold.ttf'
p1403
aS'/usr/share/fonts/truetype/msttcorefonts/verdana.ttf'
p1404
aS'/usr/share/fonts/truetype/ubuntu-font-family/Ubuntu-RI.ttf'
p1405
aS'/usr/share/fonts/truetype/freefont/FreeMonoBoldOblique.ttf'
p1406
aS'/usr/share/fonts/truetype/liberation/LiberationSerif-Italic.ttf'
p1407
aS'/usr/share/fonts/truetype/tlwg/TlwgTypewriter-Bold.ttf'
p1408
aS'/usr/share/fonts/truetype/tlwg/Waree-BoldOblique.ttf'
p1409
aS'/usr/share/fonts/truetype/freefont/FreeSans.ttf'
p1410
aS'/usr/share/fonts/truetype/ttf-lyx/cmr10.ttf'
p1411
aS'/usr/share/fonts/truetype/unfonts-core/UnDinaruLight.ttf'
p1412
aS'/usr/share/fonts/truetype/ttf-dejavu/DejaVuSansMono-Bold.ttf'
p1413
aS'/usr/share/fonts/truetype/msttcorefonts/ariali.ttf'
p1414
aS'/usr/share/fonts/truetype/freefont/FreeSerifBoldItalic.ttf'
p1415
aS'/usr/share/fonts/truetype/msttcorefonts/trebucbi.ttf'
p1416
aS'/usr/share/fonts/truetype/unfonts-core/UnDinaru.ttf'
p1417
aS'/usr/share/fonts/truetype/kacst/KacstArt.ttf'
p1418
aS'/usr/share/fonts/truetype/tlwg/Waree.ttf'
p1419
aS'/usr/share/fonts/truetype/ttf-indic-fonts-core/Vemana.ttf'
p1420
aS'/usr/share/fonts/truetype/horai-umefont/ume-pgo5.ttf'
p1421
aS'/usr/share/fonts/truetype/tlwg/Umpush-Light.ttf'
p1422
aS'/usr/share/fonts/truetype/msttcorefonts/timesi.ttf'
p1423
aS'/usr/share/fonts/truetype/msttcorefonts/Times_New_Roman_Italic.ttf'
p1424
aS'/usr/share/fonts/truetype/ttf-indic-fonts-core/Kedage-n.ttf'
p1425
aS'/usr/share/fonts/truetype/unfonts-core/UnBatangBold.ttf'
p1426
aS'/usr/share/fonts/truetype/ttf-indic-fonts-core/lohit_ta.ttf'
p1427
aS'/usr/share/fonts/truetype/liberation/LiberationSans-Regular.ttf'
p1428
aS'/usr/share/fonts/truetype/ubuntu-font-family/Ubuntu-C.ttf'
p1429
aS'/usr/share/fonts/truetype/ttf-lyx/cmsy10.ttf'
p1430
aS'/usr/share/fonts/truetype/tlwg/Kinnari.ttf'
p1431
aS'/usr/share/fonts/truetype/msttcorefonts/georgiaz.ttf'
p1432
aS'/usr/share/fonts/truetype/msttcorefonts/Courier_New_Bold_Italic.ttf'
p1433
aS'/usr/share/fonts/truetype/droid/DroidSansJapanese.ttf'
p1434
aS'/usr/share/fonts/truetype/ubuntu-font-family/UbuntuMono-BI.ttf'
p1435
aS'/usr/share/fonts/truetype/msttcorefonts/arialbd.ttf'
p1436
aS'/usr/share/fonts/truetype/msttcorefonts/timesbd.ttf'
p1437
aS'/usr/share/fonts/truetype/ttf-indic-fonts-core/Rachana_04.ttf'
p1438
aS'/usr/share/fonts/truetype/msttcorefonts/Trebuchet_MS_Bold.ttf'
p1439
aS'/usr/share/fonts/truetype/horai-umefont/ume-tgs5.ttf'
p1440
aS'/usr/share/fonts/truetype/tlwg/TlwgMono-BoldOblique.ttf'
p1441
aS'/usr/share/fonts/truetype/ttf-dejavu/DejaVuSerif-Italic.ttf'
p1442
aS'/usr/share/fonts/truetype/droid/DroidSansThai.ttf'
p1443
aS'/usr/share/fonts/truetype/tlwg/Kinnari-Bold.ttf'
p1444
aS'/usr/share/fonts/truetype/freefont/FreeMonoOblique.ttf'
p1445
aS'/usr/share/fonts/truetype/tlwg/TlwgMono.ttf'
p1446
aS'/usr/share/fonts/truetype/tlwg/TlwgTypewriter-BoldOblique.ttf'
p1447
aS'/usr/share/fonts/truetype/droid/DroidSans-Bold.ttf'
p1448
aS'/usr/share/fonts/truetype/tlwg/Kinnari-Oblique.ttf'
p1449
aS'/usr/share/fonts/truetype/horai-umefont/ume-tgo4.ttf'
p1450
aS'/usr/share/fonts/truetype/ttf-dejavu/DejaVuSansMono-Oblique.ttf'
p1451
aS'/usr/share/fonts/truetype/liberation/LiberationSansNarrow-Regular.ttf'
p1452
aS'/usr/share/fonts/truetype/msttcorefonts/trebucit.ttf'
p1453
aS'/usr/share/fonts/truetype/horai-umefont/ume-tgc5.ttf'
p1454
aS'/usr/share/fonts/truetype/msttcorefonts/timesbi.ttf'
p1455
aS'/usr/share/fonts/truetype/horai-umefont/ume-tgc4.ttf'
p1456
aS'/usr/share/fonts/truetype/tlwg/Purisa-Oblique.ttf'
p1457
aS'/usr/share/fonts/truetype/horai-umefont/ume-pgc4.ttf'
p1458
aS'/usr/share/fonts/truetype/tlwg/Kinnari-Italic.ttf'
p1459
aS'/usr/share/fonts/truetype/tlwg/Sawasdee-BoldOblique.ttf'
p1460
aS'/usr/share/fonts/truetype/tlwg/Sawasdee-Bold.ttf'
p1461
aS'/usr/share/fonts/truetype/msttcorefonts/Arial_Bold_Italic.ttf'
p1462
aS'/usr/share/fonts/truetype/ttf-dejavu/DejaVuSerifCondensed.ttf'
p1463
aS'/usr/share/fonts/truetype/ttf-punjabi-fonts/Saab.ttf'
p1464
aS'/usr/share/fonts/truetype/kacst/KacstOffice.ttf'
p1465
aS'/usr/share/fonts/truetype/tlwg/Norasi-BoldItalic.ttf'
p1466
aS'/usr/share/fonts/truetype/msttcorefonts/arial.ttf'
p1467
aS'/usr/share/fonts/truetype/unfonts-core/UnBatang.ttf'
p1468
aS'/usr/share/fonts/truetype/tlwg/Sawasdee-Oblique.ttf'
p1469
aS'/usr/share/fonts/truetype/msttcorefonts/impact.ttf'
p1470
aS'/usr/share/fonts/truetype/nanum/NanumMyeongjo.ttf'
p1471
aS'/usr/share/fonts/truetype/ttf-khmeros-core/KhmerOS.ttf'
p1472
aS'/usr/share/fonts/truetype/msttcorefonts/Verdana_Bold.ttf'
p1473
aS'/usr/share/fonts/truetype/tlwg/Loma.ttf'
p1474
aS'/usr/share/fonts/truetype/tlwg/Garuda-Oblique.ttf'
p1475
aS'/usr/share/fonts/truetype/tlwg/Loma-Bold.ttf'
p1476
aS'/usr/share/fonts/truetype/unfonts-core/UnPilgiBold.ttf'
p1477
aS'/usr/share/fonts/truetype/tlwg/Garuda-BoldOblique.ttf'
p1478
aS'/usr/share/fonts/truetype/kacst/KacstLetter.ttf'
p1479
aS'/usr/share/fonts/truetype/droid/DroidSansArabic.ttf'
p1480
aS'/usr/share/fonts/truetype/kacst/KacstPen.ttf'
p1481
aS'/usr/share/fonts/truetype/tlwg/TlwgTypo-BoldOblique.ttf'
p1482
aS'/usr/share/fonts/truetype/ttf-lyx/msam10.ttf'
p1483
aS'/usr/share/fonts/truetype/msttcorefonts/trebucbd.ttf'
p1484
aS'/usr/share/fonts/truetype/ubuntu-font-family/Ubuntu-B.ttf'
p1485
aS'/usr/share/fonts/truetype/freefont/Untitled1.ttf'
p1486
aS'/usr/share/fonts/truetype/msttcorefonts/Trebuchet_MS_Bold_Italic.ttf'
p1487
aS'/usr/share/fonts/truetype/msttcorefonts/comic.ttf'
p1488
aS'/usr/share/fonts/truetype/ttf-indic-fonts-core/MuktiNarrow.ttf'
p1489
aS'/usr/share/fonts/truetype/freefont/FreeSerifItalic.ttf'
p1490
aS'/usr/share/fonts/truetype/ubuntu-font-family/Ubuntu-L.ttf'
p1491
aS'/usr/share/fonts/truetype/msttcorefonts/courbd.ttf'
p1492
aS'/usr/share/fonts/truetype/kacst/mry_KacstQurn.ttf'
p1493
aS'/usr/share/fonts/truetype/kacst/KacstDecorative.ttf'
p1494
aS'/usr/share/fonts/truetype/tlwg/TlwgTypewriter-Oblique.ttf'
p1495
aS'/usr/share/fonts/truetype/liberation/LiberationSansNarrow-Italic.ttf'
p1496
aS'/usr/share/fonts/truetype/msttcorefonts/Times_New_Roman_Bold.ttf'
p1497
aS'/usr/share/fonts/truetype/ttf-lyx/cmex10.ttf'
p1498
asS'_FontManager__default_weight'
p1499
g13
sS'_version'
p1500
I7
sS'ttf_lookup_cache'
p1501
(dp1502
sS'default_size'
p1503
NsS'defaultFont'
p1504
(dp1505
g1196
Nsg1198
g1202
ssS'afmfiles'
p1506
(lp1507
S'/usr/share/matplotlib/mpl-data/fonts/afm/pagko8a.afm'
p1508
aS'/usr/share/matplotlib/mpl-data/fonts/afm/pzcmi8a.afm'
p1509
aS'/usr/share/matplotlib/mpl-data/fonts/afm/phvl8a.afm'
p1510
aS'/usr/share/matplotlib/mpl-data/fonts/afm/putbi8a.afm'
p1511
aS'/usr/share/matplotlib/mpl-data/fonts/pdfcorefonts/Helvetica-BoldOblique.afm'
p1512
aS'/usr/share/matplotlib/mpl-data/fonts/afm/phvro8an.afm'
p1513
aS'/usr/share/matplotlib/mpl-data/fonts/afm/pbkd8a.afm'
p1514
aS'/usr/share/matplotlib/mpl-data/fonts/afm/pcrbo8a.afm'
p1515
aS'/usr/share/matplotlib/mpl-data/fonts/pdfcorefonts/Helvetica-Bold.afm'
p1516
aS'/usr/share/matplotlib/mpl-data/fonts/pdfcorefonts/Times-BoldItalic.afm'
p1517
aS'/usr/share/matplotlib/mpl-data/fonts/afm/putr8a.afm'
p1518
aS'/usr/share/matplotlib/mpl-data/fonts/afm/pagdo8a.afm'
p1519
aS'/usr/share/matplotlib/mpl-data/fonts/afm/putb8a.afm'
p1520
aS'/usr/share/matplotlib/mpl-data/fonts/afm/pncb8a.afm'
p1521
aS'/usr/share/matplotlib/mpl-data/fonts/pdfcorefonts/Courier-Bold.afm'
p1522
aS'/usr/share/matplotlib/mpl-data/fonts/afm/pncbi8a.afm'
p1523
aS'/usr/share/matplotlib/mpl-data/fonts/afm/cmex10.afm'
p1524
aS'/usr/share/matplotlib/mpl-data/fonts/afm/cmtt10.afm'
p1525
aS'/usr/share/matplotlib/mpl-data/fonts/pdfcorefonts/Symbol.afm'
p1526
aS'/usr/share/matplotlib/mpl-data/fonts/afm/phvr8an.afm'
p1527
aS'/usr/share/matplotlib/mpl-data/fonts/afm/phvro8a.afm'
p1528
aS'/usr/share/matplotlib/mpl-data/fonts/afm/ptmr8a.afm'
p1529
aS'/usr/share/matplotlib/mpl-data/fonts/afm/pplbi8a.afm'
p1530
aS'/usr/share/matplotlib/mpl-data/fonts/afm/phvb8an.afm'
p1531
aS'/usr/share/matplotlib/mpl-data/fonts/afm/cmsy10.afm'
p1532
aS'/usr/share/matplotlib/mpl-data/fonts/afm/pagk8a.afm'
p1533
aS'/usr/share/matplotlib/mpl-data/fonts/pdfcorefonts/Courier-BoldOblique.afm'
p1534
aS'/usr/share/matplotlib/mpl-data/fonts/afm/pcrr8a.afm'
p1535
aS'/usr/share/matplotlib/mpl-data/fonts/afm/cmmi10.afm'
p1536
aS'/usr/share/matplotlib/mpl-data/fonts/afm/pplb8a.afm'
p1537
aS'/usr/share/matplotlib/mpl-data/fonts/afm/phvbo8an.afm'
p1538
aS'/usr/share/matplotlib/mpl-data/fonts/afm/phvbo8a.afm'
p1539
aS'/usr/share/matplotlib/mpl-data/fonts/afm/cmr10.afm'
p1540
aS'/usr/share/matplotlib/mpl-data/fonts/pdfcorefonts/Times-Bold.afm'
p1541
aS'/usr/share/matplotlib/mpl-data/fonts/afm/psyr.afm'
p1542
aS'/usr/share/matplotlib/mpl-data/fonts/afm/phvlo8a.afm'
p1543
aS'/usr/share/matplotlib/mpl-data/fonts/afm/phvb8a.afm'
p1544
aS'/usr/share/matplotlib/mpl-data/fonts/afm/pzdr.afm'
p1545
aS'/usr/share/matplotlib/mpl-data/fonts/afm/ptmri8a.afm'
p1546
aS'/usr/share/matplotlib/mpl-data/fonts/afm/pplr8a.afm'
p1547
aS'/usr/share/matplotlib/mpl-data/fonts/afm/pbkl8a.afm'
p1548
aS'/usr/share/matplotlib/mpl-data/fonts/pdfcorefonts/Times-Roman.afm'
p1549
aS'/usr/share/matplotlib/mpl-data/fonts/afm/pcrro8a.afm'
p1550
aS'/usr/share/matplotlib/mpl-data/fonts/pdfcorefonts/ZapfDingbats.afm'
p1551
aS'/usr/share/matplotlib/mpl-data/fonts/afm/ptmb8a.afm'
p1552
aS'/usr/share/matplotlib/mpl-data/fonts/pdfcorefonts/Helvetica.afm'
p1553
aS'/usr/share/matplotlib/mpl-data/fonts/afm/pplri8a.afm'
p1554
aS'/usr/share/matplotlib/mpl-data/fonts/afm/ptmbi8a.afm'
p1555
aS'/usr/share/matplotlib/mpl-data/fonts/afm/pbkli8a.afm'
p1556
aS'/usr/share/matplotlib/mpl-data/fonts/pdfcorefonts/Courier-Oblique.afm'
p1557
aS'/usr/share/matplotlib/mpl-data/fonts/pdfcorefonts/Courier.afm'
p1558
aS'/usr/share/matplotlib/mpl-data/fonts/afm/pcrb8a.afm'
p1559
aS'/usr/share/matplotlib/mpl-data/fonts/afm/pagd8a.afm'
p1560
aS'/usr/share/matplotlib/mpl-data/fonts/afm/pncr8a.afm'
p1561
aS'/usr/share/matplotlib/mpl-data/fonts/pdfcorefonts/Times-Italic.afm'
p1562
aS'/usr/share/matplotlib/mpl-data/fonts/afm/pbkdi8a.afm'
p1563
aS'/usr/share/matplotlib/mpl-data/fonts/afm/putri8a.afm'
p1564
aS'/usr/share/matplotlib/mpl-data/fonts/pdfcorefonts/Helvetica-Oblique.afm'
p1565
aS'/usr/share/matplotlib/mpl-data/fonts/afm/phvr8a.afm'
p1566
aS'/usr/share/matplotlib/mpl-data/fonts/afm/pncri8a.afm'
p1567
aS'/usr/share/fonts/type1/gsfonts/n021024l.afm'
p1568
aS'/usr/share/fonts/type1/gsfonts/s050000l.afm'
p1569
aS'/usr/share/fonts/type1/gsfonts/n021004l.afm'
p1570
aS'/usr/share/fonts/X11/Type1/lmss10.afm'
p1571
aS'/usr/share/fonts/X11/Type1/lmtt10.afm'
p1572
aS'/usr/share/fonts/type1/gsfonts/n019024l.afm'
p1573
aS'/usr/share/fonts/type1/gsfonts/p052024l.afm'
p1574
aS'/usr/share/fonts/type1/gsfonts/p052004l.afm'
p1575
aS'/usr/share/fonts/X11/Type1/c0648bt_.afm'
p1576
aS'/usr/share/fonts/X11/Type1/lmbx10.afm'
p1577
aS'/usr/share/fonts/X11/Type1/lmssqo8.afm'
p1578
aS'/usr/share/fonts/type1/gsfonts/n019064l.afm'
p1579
aS'/usr/share/fonts/type1/gsfonts/n022003l.afm'
p1580
aS'/usr/share/fonts/X11/Type1/c0583bt_.afm'
p1581
aS'/usr/share/fonts/type1/gsfonts/c059013l.afm'
p1582
aS'/usr/share/fonts/type1/gsfonts/a010033l.afm'
p1583
aS'/usr/share/fonts/type1/gsfonts/n019044l.afm'
p1584
aS'/usr/share/fonts/type1/gsfonts/z003034l.afm'
p1585
aS'/usr/share/fonts/X11/Type1/Symbol.afm'
p1586
aS'/usr/share/fonts/type1/gsfonts/n022024l.afm'
p1587
aS'/usr/share/fonts/X11/Type1/lmtcsc10.afm'
p1588
aS'/usr/share/fonts/X11/Type1/lmtlc10.afm'
p1589
aS'/usr/share/fonts/type1/gsfonts/c059033l.afm'
p1590
aS'/usr/share/fonts/X11/Type1/lmcsco10.afm'
p1591
aS'/usr/share/fonts/X11/Type1/lmssbx10.afm'
p1592
aS'/usr/share/fonts/X11/Type1/c0633bt_.afm'
p1593
aS'/usr/share/fonts/X11/Type1/lmvtto10.afm'
p1594
aS'/usr/share/fonts/X11/Type1/lmdunh10.afm'
p1595
aS'/usr/share/fonts/X11/Type1/lmbxi10.afm'
p1596
aS'/usr/share/fonts/X11/Type1/lmr10.afm'
p1597
aS'/usr/share/fonts/X11/Type1/c0649bt_.afm'
p1598
aS'/usr/share/fonts/type1/gsfonts/b018035l.afm'
p1599
aS'/usr/share/fonts/type1/gsfonts/b018012l.afm'
p1600
aS'/usr/share/fonts/type1/gsfonts/n019003l.afm'
p1601
aS'/usr/share/fonts/type1/gsfonts/d050000l.afm'
p1602
aS'/usr/share/fonts/type1/gsfonts/p052023l.afm'
p1603
aS'/usr/share/fonts/X11/Type1/lmvtt10.afm'
p1604
aS'/usr/share/fonts/X11/Type1/lmduno10.afm'
p1605
aS'/usr/share/fonts/type1/gsfonts/a010013l.afm'
p1606
aS'/usr/share/fonts/X11/Type1/c0582bt_.afm'
p1607
aS'/usr/share/fonts/X11/Type1/lmssdo10.afm'
p1608
aS'/usr/share/fonts/type1/gsfonts/n022004l.afm'
p1609
aS'/usr/share/fonts/X11/Type1/lmssq8.afm'
p1610
aS'/usr/share/fonts/type1/mathml/Symbol.afm'
p1611
aS'/usr/share/fonts/X11/Type1/lmtti10.afm'
p1612
aS'/usr/share/fonts/X11/Type1/lmssbo10.afm'
p1613
aS'/usr/share/fonts/type1/gsfonts/a010035l.afm'
p1614
aS'/usr/share/fonts/type1/gsfonts/n019043l.afm'
p1615
aS'/usr/share/fonts/X11/Type1/lmsso10.afm'
p1616
aS'/usr/share/fonts/type1/gsfonts/n019023l.afm'
p1617
aS'/usr/share/fonts/X11/Type1/lmtl10.afm'
p1618
aS'/usr/share/fonts/X11/Type1/lmtko10.afm'
p1619
aS'/usr/share/fonts/X11/Type1/lmvtko10.afm'
p1620
aS'/usr/share/fonts/type1/gsfonts/n019063l.afm'
p1621
aS'/usr/share/fonts/X11/Type1/c0611bt_.afm'
p1622
aS'/usr/share/fonts/X11/Type1/lmbo10.afm'
p1623
aS'/usr/share/fonts/type1/gsfonts/c059036l.afm'
p1624
aS'/usr/share/fonts/X11/Type1/lmri10.afm'
p1625
aS'/usr/share/fonts/type1/gsfonts/n019004l.afm'
p1626
aS'/usr/share/fonts/X11/Type1/lmssqbo8.afm'
p1627
aS'/usr/share/fonts/type1/gsfonts/p052003l.afm'
p1628
aS'/usr/share/fonts/X11/Type1/lmtcso10.afm'
p1629
aS'/usr/share/fonts/type1/gsfonts/a010015l.afm'
p1630
aS'/usr/share/fonts/X11/Type1/lmssqbx8.afm'
p1631
aS'/usr/share/fonts/X11/Type1/lmro10.afm'
p1632
aS'/usr/share/fonts/X11/Type1/lmtk10.afm'
p1633
aS'/usr/share/fonts/X11/Type1/lmssdc10.afm'
p1634
aS'/usr/share/fonts/type1/gsfonts/b018032l.afm'
p1635
aS'/usr/share/fonts/X11/Type1/lmvtk10.afm'
p1636
aS'/usr/share/fonts/type1/gsfonts/c059016l.afm'
p1637
aS'/usr/share/fonts/X11/Type1/lmbxo10.afm'
p1638
aS'/usr/share/fonts/type1/gsfonts/n022023l.afm'
p1639
aS'/usr/share/fonts/X11/Type1/lmtlco10.afm'
p1640
aS'/usr/share/fonts/X11/Type1/lmtto10.afm'
p1641
aS'/usr/share/fonts/type1/gsfonts/n021023l.afm'
p1642
aS'/usr/share/fonts/X11/Type1/lmcsc10.afm'
p1643
aS'/usr/share/fonts/X11/Type1/lmtlo10.afm'
p1644
aS'/usr/share/fonts/X11/Type1/lmb10.afm'
p1645
aS'/usr/share/fonts/X11/Type1/lmvtl10.afm'
p1646
aS'/usr/share/fonts/type1/gsfonts/n021003l.afm'
p1647
aS'/usr/share/fonts/type1/gsfonts/b018015l.afm'
p1648
aS'/usr/share/fonts/X11/Type1/lmu10.afm'
p1649
aS'/usr/share/fonts/X11/Type1/lmvtlo10.afm'
p1650
aS'/usr/share/fonts/X11/Type1/c0632bt_.afm'
p1651
aS'/usr/share/fonts/X11/Type1/c0419bt_.afm'
p1652
asS'afmlist'
p1653
(lp1654
g7
(g8
g9
NtRp1655
(dp1656
g12
g29
sg14
S'ITC Avant Garde Gothic'
p1657
sg16
I400
sg17
g13
sg18
g13
sg19
g1508
sg21
g22
sbag7
(g8
g9
NtRp1658
(dp1659
g12
g29
sg14
S'ITC Zapf Chancery'
p1660
sg16
I500
sg17
g13
sg18
g13
sg19
g1509
sg21
g22
sbag7
(g8
g9
NtRp1661
(dp1662
g12
g13
sg14
S'Helvetica'
p1663
sg16
I200
sg17
g13
sg18
g13
sg19
g1510
sg21
g22
sbag7
(g8
g9
NtRp1664
(dp1665
g12
g29
sg14
S'Utopia'
p1666
sg16
I700
sg17
g13
sg18
g13
sg19
g1511
sg21
g22
sbag7
(g8
g9
NtRp1667
(dp1668
g12
g29
sg14
S'Helvetica'
p1669
sg16
I700
sg17
g13
sg18
g13
sg19
g1512
sg21
g22
sbag7
(g8
g9
NtRp1670
(dp1671
g12
g29
sg14
S'Helvetica'
p1672
sg16
I500
sg17
g172
sg18
g13
sg19
g1513
sg21
g22
sbag7
(g8
g9
NtRp1673
(dp1674
g12
g13
sg14
S'ITC Bookman'
p1675
sg16
I600
sg17
g13
sg18
g13
sg19
g1514
sg21
g22
sbag7
(g8
g9
NtRp1676
(dp1677
g12
g29
sg14
S'Courier'
p1678
sg16
I700
sg17
g13
sg18
g13
sg19
g1515
sg21
g22
sbag7
(g8
g9
NtRp1679
(dp1680
g12
g13
sg14
S'Helvetica'
p1681
sg16
I700
sg17
g13
sg18
g13
sg19
g1516
sg21
g22
sbag7
(g8
g9
NtRp1682
(dp1683
g12
g29
sg14
S'Times'
p1684
sg16
I700
sg17
g13
sg18
g13
sg19
g1517
sg21
g22
sbag7
(g8
g9
NtRp1685
(dp1686
g12
g13
sg14
S'Utopia'
p1687
sg16
I400
sg17
g13
sg18
g13
sg19
g1518
sg21
g22
sbag7
(g8
g9
NtRp1688
(dp1689
g12
g29
sg14
S'ITC Avant Garde Gothic'
p1690
sg16
I600
sg17
g13
sg18
g13
sg19
g1519
sg21
g22
sbag7
(g8
g9
NtRp1691
(dp1692
g12
g13
sg14
S'Utopia'
p1693
sg16
I700
sg17
g13
sg18
g13
sg19
g1520
sg21
g22
sbag7
(g8
g9
NtRp1694
(dp1695
g12
g13
sg14
S'New Century Schoolbook'
p1696
sg16
I700
sg17
g13
sg18
g13
sg19
g1521
sg21
g22
sbag7
(g8
g9
NtRp1697
(dp1698
g12
g13
sg14
S'Courier'
p1699
sg16
I700
sg17
g13
sg18
g13
sg19
g1522
sg21
g22
sbag7
(g8
g9
NtRp1700
(dp1701
g12
g29
sg14
S'New Century Schoolbook'
p1702
sg16
I700
sg17
g13
sg18
g13
sg19
g1523
sg21
g22
sbag7
(g8
g9
NtRp1703
(dp1704
g12
g13
sg14
S'Computer Modern'
p1705
sg16
I500
sg17
g13
sg18
g13
sg19
g1524
sg21
g22
sbag7
(g8
g9
NtRp1706
(dp1707
g12
g13
sg14
S'Computer Modern'
p1708
sg16
I500
sg17
g13
sg18
g13
sg19
g1525
sg21
g22
sbag7
(g8
g9
NtRp1709
(dp1710
g12
g13
sg14
S'Symbol'
p1711
sg16
I500
sg17
g13
sg18
g13
sg19
g1526
sg21
g22
sbag7
(g8
g9
NtRp1712
(dp1713
g12
g13
sg14
S'Helvetica'
p1714
sg16
I500
sg17
g172
sg18
g13
sg19
g1527
sg21
g22
sbag7
(g8
g9
NtRp1715
(dp1716
g12
g29
sg14
S'Helvetica'
p1717
sg16
I500
sg17
g13
sg18
g13
sg19
g1528
sg21
g22
sbag7
(g8
g9
NtRp1718
(dp1719
g12
g13
sg14
S'Times'
p1720
sg16
I500
sg17
g13
sg18
g13
sg19
g1529
sg21
g22
sbag7
(g8
g9
NtRp1721
(dp1722
g12
g29
sg14
S'Palatino'
p1723
sg16
I700
sg17
g13
sg18
g13
sg19
g1530
sg21
g22
sbag7
(g8
g9
NtRp1724
(dp1725
g12
g13
sg14
S'Helvetica'
p1726
sg16
I700
sg17
g172
sg18
g13
sg19
g1531
sg21
g22
sbag7
(g8
g9
NtRp1727
(dp1728
g12
g29
sg14
S'Computer Modern'
p1729
sg16
I500
sg17
g13
sg18
g13
sg19
g1532
sg21
g22
sbag7
(g8
g9
NtRp1730
(dp1731
g12
g13
sg14
S'ITC Avant Garde Gothic'
p1732
sg16
I400
sg17
g13
sg18
g13
sg19
g1533
sg21
g22
sbag7
(g8
g9
NtRp1733
(dp1734
g12
g29
sg14
S'Courier'
p1735
sg16
I700
sg17
g13
sg18
g13
sg19
g1534
sg21
g22
sbag7
(g8
g9
NtRp1736
(dp1737
g12
g13
sg14
S'Courier'
p1738
sg16
I500
sg17
g13
sg18
g13
sg19
g1535
sg21
g22
sbag7
(g8
g9
NtRp1739
(dp1740
g12
g29
sg14
S'Computer Modern'
p1741
sg16
I500
sg17
g13
sg18
g13
sg19
g1536
sg21
g22
sbag7
(g8
g9
NtRp1742
(dp1743
g12
g13
sg14
S'Palatino'
p1744
sg16
I700
sg17
g13
sg18
g13
sg19
g1537
sg21
g22
sbag7
(g8
g9
NtRp1745
(dp1746
g12
g29
sg14
S'Helvetica'
p1747
sg16
I700
sg17
g172
sg18
g13
sg19
g1538
sg21
g22
sbag7
(g8
g9
NtRp1748
(dp1749
g12
g29
sg14
S'Helvetica'
p1750
sg16
I700
sg17
g13
sg18
g13
sg19
g1539
sg21
g22
sbag7
(g8
g9
NtRp1751
(dp1752
g12
g13
sg14
S'Computer Modern'
p1753
sg16
I500
sg17
g13
sg18
g13
sg19
g1540
sg21
g22
sbag7
(g8
g9
NtRp1754
(dp1755
g12
g13
sg14
S'Times'
p1756
sg16
I700
sg17
g13
sg18
g13
sg19
g1541
sg21
g22
sbag7
(g8
g9
NtRp1757
(dp1758
g12
g13
sg14
S'Symbol'
p1759
sg16
I500
sg17
g13
sg18
g13
sg19
g1542
sg21
g22
sbag7
(g8
g9
NtRp1760
(dp1761
g12
g29
sg14
S'Helvetica'
p1762
sg16
I200
sg17
g13
sg18
g13
sg19
g1543
sg21
g22
sbag7
(g8
g9
NtRp1763
(dp1764
g12
g13
sg14
S'Helvetica'
p1765
sg16
I700
sg17
g13
sg18
g13
sg19
g1544
sg21
g22
sbag7
(g8
g9
NtRp1766
(dp1767
g12
g13
sg14
S'ITC Zapf Dingbats'
p1768
sg16
I500
sg17
g13
sg18
g13
sg19
g1545
sg21
g22
sbag7
(g8
g9
NtRp1769
(dp1770
g12
g29
sg14
S'Times'
p1771
sg16
I500
sg17
g13
sg18
g13
sg19
g1546
sg21
g22
sbag7
(g8
g9
NtRp1772
(dp1773
g12
g13
sg14
S'Palatino'
p1774
sg16
I500
sg17
g13
sg18
g13
sg19
g1547
sg21
g22
sbag7
(g8
g9
NtRp1775
(dp1776
g12
g13
sg14
S'ITC Bookman'
p1777
sg16
I200
sg17
g13
sg18
g13
sg19
g1548
sg21
g22
sbag7
(g8
g9
NtRp1778
(dp1779
g12
g13
sg14
S'Times'
p1780
sg16
I500
sg17
g13
sg18
g13
sg19
g1549
sg21
g22
sbag7
(g8
g9
NtRp1781
(dp1782
g12
g29
sg14
S'Courier'
p1783
sg16
I500
sg17
g13
sg18
g13
sg19
g1550
sg21
g22
sbag7
(g8
g9
NtRp1784
(dp1785
g12
g13
sg14
S'ZapfDingbats'
p1786
sg16
I500
sg17
g13
sg18
g13
sg19
g1551
sg21
g22
sbag7
(g8
g9
NtRp1787
(dp1788
g12
g13
sg14
S'Times'
p1789
sg16
I700
sg17
g13
sg18
g13
sg19
g1552
sg21
g22
sbag7
(g8
g9
NtRp1790
(dp1791
g12
g13
sg14
S'Helvetica'
p1792
sg16
I500
sg17
g13
sg18
g13
sg19
g1553
sg21
g22
sbag7
(g8
g9
NtRp1793
(dp1794
g12
g29
sg14
S'Palatino'
p1795
sg16
I500
sg17
g13
sg18
g13
sg19
g1554
sg21
g22
sbag7
(g8
g9
NtRp1796
(dp1797
g12
g29
sg14
S'Times'
p1798
sg16
I700
sg17
g13
sg18
g13
sg19
g1555
sg21
g22
sbag7
(g8
g9
NtRp1799
(dp1800
g12
g29
sg14
S'ITC Bookman'
p1801
sg16
I200
sg17
g13
sg18
g13
sg19
g1556
sg21
g22
sbag7
(g8
g9
NtRp1802
(dp1803
g12
g29
sg14
S'Courier'
p1804
sg16
I500
sg17
g13
sg18
g13
sg19
g1557
sg21
g22
sbag7
(g8
g9
NtRp1805
(dp1806
g12
g13
sg14
S'Courier'
p1807
sg16
I500
sg17
g13
sg18
g13
sg19
g1558
sg21
g22
sbag7
(g8
g9
NtRp1808
(dp1809
g12
g13
sg14
S'Courier'
p1810
sg16
I700
sg17
g13
sg18
g13
sg19
g1559
sg21
g22
sbag7
(g8
g9
NtRp1811
(dp1812
g12
g13
sg14
S'ITC Avant Garde Gothic'
p1813
sg16
I600
sg17
g13
sg18
g13
sg19
g1560
sg21
g22
sbag7
(g8
g9
NtRp1814
(dp1815
g12
g13
sg14
S'New Century Schoolbook'
p1816
sg16
I500
sg17
g13
sg18
g13
sg19
g1561
sg21
g22
sbag7
(g8
g9
NtRp1817
(dp1818
g12
g29
sg14
S'Times'
p1819
sg16
I500
sg17
g13
sg18
g13
sg19
g1562
sg21
g22
sbag7
(g8
g9
NtRp1820
(dp1821
g12
g29
sg14
S'ITC Bookman'
p1822
sg16
I600
sg17
g13
sg18
g13
sg19
g1563
sg21
g22
sbag7
(g8
g9
NtRp1823
(dp1824
g12
g29
sg14
S'Utopia'
p1825
sg16
I400
sg17
g13
sg18
g13
sg19
g1564
sg21
g22
sbag7
(g8
g9
NtRp1826
(dp1827
g12
g29
sg14
S'Helvetica'
p1828
sg16
I500
sg17
g13
sg18
g13
sg19
g1565
sg21
g22
sbag7
(g8
g9
NtRp1829
(dp1830
g12
g13
sg14
S'Helvetica'
p1831
sg16
I500
sg17
g13
sg18
g13
sg19
g1566
sg21
g22
sbag7
(g8
g9
NtRp1832
(dp1833
g12
g29
sg14
S'New Century Schoolbook'
p1834
sg16
I500
sg17
g13
sg18
g13
sg19
g1567
sg21
g22
sbag7
(g8
g9
NtRp1835
(dp1836
g12
g29
sg14
S'Nimbus Roman No9 L'
p1837
sg16
I700
sg17
g13
sg18
g13
sg19
g1568
sg21
g22
sbag7
(g8
g9
NtRp1838
(dp1839
g12
g13
sg14
S'Standard Symbols L'
p1840
sg16
I400
sg17
g13
sg18
g13
sg19
g1569
sg21
g22
sbag7
(g8
g9
NtRp1841
(dp1842
g12
g13
sg14
S'Nimbus Roman No9 L'
p1843
sg16
I700
sg17
g13
sg18
g13
sg19
g1570
sg21
g22
sbag7
(g8
g9
NtRp1844
(dp1845
g12
g13
sg14
S'LMSans10'
p1846
sg16
I400
sg17
g13
sg18
g13
sg19
g1571
sg21
g22
sbag7
(g8
g9
NtRp1847
(dp1848
g12
g13
sg14
S'LMMono10'
p1849
sg16
I400
sg17
g13
sg18
g13
sg19
g1572
sg21
g22
sbag7
(g8
g9
NtRp1850
(dp1851
g12
g29
sg14
S'Nimbus Sans L'
p1852
sg16
I700
sg17
g13
sg18
g13
sg19
g1573
sg21
g22
sbag7
(g8
g9
NtRp1853
(dp1854
g12
g29
sg14
S'URW Palladio L'
p1855
sg16
I700
sg17
g13
sg18
g13
sg19
g1574
sg21
g22
sbag7
(g8
g9
NtRp1856
(dp1857
g12
g13
sg14
S'URW Palladio L'
p1858
sg16
I700
sg17
g13
sg18
g13
sg19
g1575
sg21
g22
sbag7
(g8
g9
NtRp1859
(dp1860
g12
g13
sg14
S'Bitstream Charter'
p1861
sg16
I400
sg17
g13
sg18
g13
sg19
g1576
sg21
g22
sbag7
(g8
g9
NtRp1862
(dp1863
g12
g13
sg14
S'LMRoman10'
p1864
sg16
I700
sg17
g13
sg18
g13
sg19
g1577
sg21
g22
sbag7
(g8
g9
NtRp1865
(dp1866
g12
g29
sg14
S'LMSansQuot8'
p1867
sg16
I400
sg17
g13
sg18
g13
sg19
g1578
sg21
g22
sbag7
(g8
g9
NtRp1868
(dp1869
g12
g29
sg14
S'Nimbus Sans L'
p1870
sg16
I700
sg17
g172
sg18
g13
sg19
g1579
sg21
g22
sbag7
(g8
g9
NtRp1871
(dp1872
g12
g13
sg14
S'Nimbus Mono L'
p1873
sg16
I400
sg17
g13
sg18
g13
sg19
g1580
sg21
g22
sbag7
(g8
g9
NtRp1874
(dp1875
g12
g13
sg14
S'Courier 10 Pitch'
p1876
sg16
I700
sg17
g13
sg18
g13
sg19
g1581
sg21
g22
sbag7
(g8
g9
NtRp1877
(dp1878
g12
g13
sg14
S'Century Schoolbook L'
p1879
sg16
I500
sg17
g13
sg18
g13
sg19
g1582
sg21
g22
sbag7
(g8
g9
NtRp1880
(dp1881
g12
g29
sg14
S'URW Gothic L'
p1882
sg16
I400
sg17
g13
sg18
g13
sg19
g1583
sg21
g22
sbag7
(g8
g9
NtRp1883
(dp1884
g12
g13
sg14
S'Nimbus Sans L'
p1885
sg16
I700
sg17
g172
sg18
g13
sg19
g1584
sg21
g22
sbag7
(g8
g9
NtRp1886
(dp1887
g12
g29
sg14
S'URW Chancery L'
p1888
sg16
I500
sg17
g13
sg18
g13
sg19
g1585
sg21
g22
sbag7
(g8
g9
NtRp1889
(dp1890
g12
g29
sg14
S'Nimbus Mono L'
p1891
sg16
I700
sg17
g13
sg18
g13
sg19
g1587
sg21
g22
sbag7
(g8
g9
NtRp1892
(dp1893
g12
g13
sg14
S'LMMonoCaps10'
p1894
sg16
I400
sg17
g13
sg18
g13
sg19
g1588
sg21
g22
sbag7
(g8
g9
NtRp1895
(dp1896
g12
g13
sg14
S'LMMonoLtCond10'
p1897
sg16
I200
sg17
g172
sg18
g13
sg19
g1589
sg21
g22
sbag7
(g8
g9
NtRp1898
(dp1899
g12
g29
sg14
S'Century Schoolbook L'
p1900
sg16
I400
sg17
g13
sg18
g13
sg19
g1590
sg21
g22
sbag7
(g8
g9
NtRp1901
(dp1902
g12
g29
sg14
S'LMRomanCaps10'
p1903
sg16
I400
sg17
g13
sg18
g13
sg19
g1591
sg21
g22
sbag7
(g8
g9
NtRp1904
(dp1905
g12
g13
sg14
S'LMSans10'
p1906
sg16
I700
sg17
g13
sg18
g13
sg19
g1592
sg21
g22
sbag7
(g8
g9
NtRp1907
(dp1908
g12
g29
sg14
S'Bitstream Charter'
p1909
sg16
I700
sg17
g13
sg18
g13
sg19
g1593
sg21
g22
sbag7
(g8
g9
NtRp1910
(dp1911
g12
g29
sg14
S'LMMonoProp10'
p1912
sg16
I400
sg17
g13
sg18
g13
sg19
g1594
sg21
g22
sbag7
(g8
g9
NtRp1913
(dp1914
g12
g13
sg14
S'LMRomanDunh10'
p1915
sg16
I400
sg17
g13
sg18
g13
sg19
g1595
sg21
g22
sbag7
(g8
g9
NtRp1916
(dp1917
g12
g29
sg14
S'LMRoman10'
p1918
sg16
I700
sg17
g13
sg18
g13
sg19
g1596
sg21
g22
sbag7
(g8
g9
NtRp1919
(dp1920
g12
g13
sg14
S'LMRoman10'
p1921
sg16
I400
sg17
g13
sg18
g13
sg19
g1597
sg21
g22
sbag7
(g8
g9
NtRp1922
(dp1923
g12
g29
sg14
S'Bitstream Charter'
p1924
sg16
I400
sg17
g13
sg18
g13
sg19
g1598
sg21
g22
sbag7
(g8
g9
NtRp1925
(dp1926
g12
g29
sg14
S'URW Bookman L'
p1927
sg16
I700
sg17
g13
sg18
g13
sg19
g1599
sg21
g22
sbag7
(g8
g9
NtRp1928
(dp1929
g12
g13
sg14
S'URW Bookman L'
p1930
sg16
I400
sg17
g13
sg18
g13
sg19
g1600
sg21
g22
sbag7
(g8
g9
NtRp1931
(dp1932
g12
g13
sg14
S'Nimbus Sans L'
p1933
sg16
I400
sg17
g13
sg18
g13
sg19
g1601
sg21
g22
sbag7
(g8
g9
NtRp1934
(dp1935
g12
g13
sg14
S'Dingbats'
p1936
sg16
I400
sg17
g13
sg18
g13
sg19
g1602
sg21
g22
sbag7
(g8
g9
NtRp1937
(dp1938
g12
g29
sg14
S'URW Palladio L'
p1939
sg16
I400
sg17
g13
sg18
g13
sg19
g1603
sg21
g22
sbag7
(g8
g9
NtRp1940
(dp1941
g12
g13
sg14
S'LMMonoProp10'
p1942
sg16
I400
sg17
g13
sg18
g13
sg19
g1604
sg21
g22
sbag7
(g8
g9
NtRp1943
(dp1944
g12
g29
sg14
S'LMRomanDunh10'
p1945
sg16
I400
sg17
g13
sg18
g13
sg19
g1605
sg21
g22
sbag7
(g8
g9
NtRp1946
(dp1947
g12
g13
sg14
S'URW Gothic L'
p1948
sg16
I400
sg17
g13
sg18
g13
sg19
g1606
sg21
g22
sbag7
(g8
g9
NtRp1949
(dp1950
g12
g29
sg14
S'Courier 10 Pitch'
p1951
sg16
I400
sg17
g13
sg18
g13
sg19
g1607
sg21
g22
sbag7
(g8
g9
NtRp1952
(dp1953
g12
g29
sg14
S'LMSansDemiCond10'
p1954
sg16
I600
sg17
g172
sg18
g13
sg19
g1608
sg21
g22
sbag7
(g8
g9
NtRp1955
(dp1956
g12
g13
sg14
S'Nimbus Mono L'
p1957
sg16
I700
sg17
g13
sg18
g13
sg19
g1609
sg21
g22
sbag7
(g8
g9
NtRp1958
(dp1959
g12
g13
sg14
S'LMSansQuot8'
p1960
sg16
I400
sg17
g13
sg18
g13
sg19
g1610
sg21
g22
sbag7
(g8
g9
NtRp1961
(dp1962
g12
g29
sg14
S'LMMono10'
p1963
sg16
I400
sg17
g13
sg18
g13
sg19
g1612
sg21
g22
sbag7
(g8
g9
NtRp1964
(dp1965
g12
g29
sg14
S'LMSans10'
p1966
sg16
I700
sg17
g13
sg18
g13
sg19
g1613
sg21
g22
sbag7
(g8
g9
NtRp1967
(dp1968
g12
g29
sg14
S'URW Gothic L'
p1969
sg16
I600
sg17
g13
sg18
g13
sg19
g1614
sg21
g22
sbag7
(g8
g9
NtRp1970
(dp1971
g12
g13
sg14
S'Nimbus Sans L'
p1972
sg16
I400
sg17
g172
sg18
g13
sg19
g1615
sg21
g22
sbag7
(g8
g9
NtRp1973
(dp1974
g12
g29
sg14
S'LMSans10'
p1975
sg16
I400
sg17
g13
sg18
g13
sg19
g1616
sg21
g22
sbag7
(g8
g9
NtRp1976
(dp1977
g12
g29
sg14
S'Nimbus Sans L'
p1978
sg16
I400
sg17
g13
sg18
g13
sg19
g1617
sg21
g22
sbag7
(g8
g9
NtRp1979
(dp1980
g12
g13
sg14
S'LMMonoLt10'
p1981
sg16
I200
sg17
g13
sg18
g13
sg19
g1618
sg21
g22
sbag7
(g8
g9
NtRp1982
(dp1983
g12
g29
sg14
S'LMMonoLt10'
p1984
sg16
I700
sg17
g13
sg18
g13
sg19
g1619
sg21
g22
sbag7
(g8
g9
NtRp1985
(dp1986
g12
g29
sg14
S'LMMonoPropLt10'
p1987
sg16
I700
sg17
g13
sg18
g13
sg19
g1620
sg21
g22
sbag7
(g8
g9
NtRp1988
(dp1989
g12
g29
sg14
S'Nimbus Sans L'
p1990
sg16
I400
sg17
g172
sg18
g13
sg19
g1621
sg21
g22
sbag7
(g8
g9
NtRp1991
(dp1992
g12
g29
sg14
S'Courier 10 Pitch'
p1993
sg16
I700
sg17
g13
sg18
g13
sg19
g1622
sg21
g22
sbag7
(g8
g9
NtRp1994
(dp1995
g12
g29
sg14
S'LMRomanDemi10'
p1996
sg16
I600
sg17
g13
sg18
g13
sg19
g1623
sg21
g22
sbag7
(g8
g9
NtRp1997
(dp1998
g12
g29
sg14
S'Century Schoolbook L'
p1999
sg16
I700
sg17
g13
sg18
g13
sg19
g1624
sg21
g22
sbag7
(g8
g9
NtRp2000
(dp2001
g12
g29
sg14
S'LMRoman10'
p2002
sg16
I400
sg17
g13
sg18
g13
sg19
g1625
sg21
g22
sbag7
(g8
g9
NtRp2003
(dp2004
g12
g13
sg14
S'Nimbus Sans L'
p2005
sg16
I700
sg17
g13
sg18
g13
sg19
g1626
sg21
g22
sbag7
(g8
g9
NtRp2006
(dp2007
g12
g29
sg14
S'LMSansQuot8'
p2008
sg16
I700
sg17
g13
sg18
g13
sg19
g1627
sg21
g22
sbag7
(g8
g9
NtRp2009
(dp2010
g12
g13
sg14
S'URW Palladio L'
p2011
sg16
I500
sg17
g13
sg18
g13
sg19
g1628
sg21
g22
sbag7
(g8
g9
NtRp2012
(dp2013
g12
g29
sg14
S'LMMonoCaps10'
p2014
sg16
I400
sg17
g13
sg18
g13
sg19
g1629
sg21
g22
sbag7
(g8
g9
NtRp2015
(dp2016
g12
g13
sg14
S'URW Gothic L'
p2017
sg16
I600
sg17
g13
sg18
g13
sg19
g1630
sg21
g22
sbag7
(g8
g9
NtRp2018
(dp2019
g12
g13
sg14
S'LMSansQuot8'
p2020
sg16
I700
sg17
g13
sg18
g13
sg19
g1631
sg21
g22
sbag7
(g8
g9
NtRp2021
(dp2022
g12
g29
sg14
S'LMRomanSlant10'
p2023
sg16
I400
sg17
g13
sg18
g13
sg19
g1632
sg21
g22
sbag7
(g8
g9
NtRp2024
(dp2025
g12
g13
sg14
S'LMMonoLt10'
p2026
sg16
I700
sg17
g13
sg18
g13
sg19
g1633
sg21
g22
sbag7
(g8
g9
NtRp2027
(dp2028
g12
g13
sg14
S'LMSansDemiCond10'
p2029
sg16
I600
sg17
g172
sg18
g13
sg19
g1634
sg21
g22
sbag7
(g8
g9
NtRp2030
(dp2031
g12
g29
sg14
S'URW Bookman L'
p2032
sg16
I400
sg17
g13
sg18
g13
sg19
g1635
sg21
g22
sbag7
(g8
g9
NtRp2033
(dp2034
g12
g13
sg14
S'LMMonoPropLt10'
p2035
sg16
I700
sg17
g13
sg18
g13
sg19
g1636
sg21
g22
sbag7
(g8
g9
NtRp2036
(dp2037
g12
g13
sg14
S'Century Schoolbook L'
p2038
sg16
I700
sg17
g13
sg18
g13
sg19
g1637
sg21
g22
sbag7
(g8
g9
NtRp2039
(dp2040
g12
g29
sg14
S'LMRomanSlant10'
p2041
sg16
I700
sg17
g13
sg18
g13
sg19
g1638
sg21
g22
sbag7
(g8
g9
NtRp2042
(dp2043
g12
g29
sg14
S'Nimbus Mono L'
p2044
sg16
I400
sg17
g13
sg18
g13
sg19
g1639
sg21
g22
sbag7
(g8
g9
NtRp2045
(dp2046
g12
g29
sg14
S'LMMonoLtCond10'
p2047
sg16
I200
sg17
g172
sg18
g13
sg19
g1640
sg21
g22
sbag7
(g8
g9
NtRp2048
(dp2049
g12
g29
sg14
S'LMMonoSlant10'
p2050
sg16
I400
sg17
g13
sg18
g13
sg19
g1641
sg21
g22
sbag7
(g8
g9
NtRp2051
(dp2052
g12
g29
sg14
S'Nimbus Roman No9 L'
p2053
sg16
I400
sg17
g13
sg18
g13
sg19
g1642
sg21
g22
sbag7
(g8
g9
NtRp2054
(dp2055
g12
g13
sg14
S'LMRomanCaps10'
p2056
sg16
I400
sg17
g13
sg18
g13
sg19
g1643
sg21
g22
sbag7
(g8
g9
NtRp2057
(dp2058
g12
g29
sg14
S'LMMonoLt10'
p2059
sg16
I200
sg17
g13
sg18
g13
sg19
g1644
sg21
g22
sbag7
(g8
g9
NtRp2060
(dp2061
g12
g13
sg14
S'LMRomanDemi10'
p2062
sg16
I600
sg17
g13
sg18
g13
sg19
g1645
sg21
g22
sbag7
(g8
g9
NtRp2063
(dp2064
g12
g13
sg14
S'LMMonoPropLt10'
p2065
sg16
I200
sg17
g13
sg18
g13
sg19
g1646
sg21
g22
sbag7
(g8
g9
NtRp2066
(dp2067
g12
g13
sg14
S'Nimbus Roman No9 L'
p2068
sg16
I400
sg17
g13
sg18
g13
sg19
g1647
sg21
g22
sbag7
(g8
g9
NtRp2069
(dp2070
g12
g13
sg14
S'URW Bookman L'
p2071
sg16
I700
sg17
g13
sg18
g13
sg19
g1648
sg21
g22
sbag7
(g8
g9
NtRp2072
(dp2073
g12
g13
sg14
S'LMRomanUnsl10'
p2074
sg16
I400
sg17
g13
sg18
g13
sg19
g1649
sg21
g22
sbag7
(g8
g9
NtRp2075
(dp2076
g12
g29
sg14
S'LMMonoPropLt10'
p2077
sg16
I200
sg17
g13
sg18
g13
sg19
g1650
sg21
g22
sbag7
(g8
g9
NtRp2078
(dp2079
g12
g13
sg14
S'Bitstream Charter'
p2080
sg16
I700
sg17
g13
sg18
g13
sg19
g1651
sg21
g22
sbag7
(g8
g9
NtRp2081
(dp2082
g12
g13
sg14
S'Courier 10 Pitch'
p2083
sg16
I400
sg17
g13
sg18
g13
sg19
g1652
sg21
g22
sbasb.